 agent

 Timestamp is 5a2b7ffc (Fri Dec  8 22:17:32 2017)

 Preferred load address is 00400000

 Start         Length     Name                   Class
 0001:00000000 000001a0H .text$di                CODE
 0001:000001a0 00026970H .text$mn                CODE
 0001:00026b10 00000220H .text$x                 CODE
 0001:00026d30 0000007dH .text$yd                CODE
 0002:00000000 00000168H .idata$5                DATA
 0002:00000168 00000004H .00cfg                  DATA
 0002:0000016c 00000004H .CRT$XCA                DATA
 0002:00000170 00000004H .CRT$XCAA               DATA
 0002:00000174 0000002cH .CRT$XCC                DATA
 0002:000001a0 00000008H .CRT$XCL                DATA
 0002:000001a8 0000000cH .CRT$XCU                DATA
 0002:000001b4 00000004H .CRT$XCZ                DATA
 0002:000001b8 00000004H .CRT$XIA                DATA
 0002:000001bc 00000004H .CRT$XIAA               DATA
 0002:000001c0 00000004H .CRT$XIAC               DATA
 0002:000001c4 00000018H .CRT$XIC                DATA
 0002:000001dc 00000004H .CRT$XIZ                DATA
 0002:000001e0 00000004H .CRT$XLA                DATA
 0002:000001e4 00000004H .CRT$XLZ                DATA
 0002:000001e8 00000004H .CRT$XPA                DATA
 0002:000001ec 00000008H .CRT$XPX                DATA
 0002:000001f4 00000004H .CRT$XPXA               DATA
 0002:000001f8 00000004H .CRT$XPZ                DATA
 0002:000001fc 00000004H .CRT$XTA                DATA
 0002:00000200 00000010H .CRT$XTZ                DATA
 0002:00000210 0000c52cH .rdata                  DATA
 0002:0000c73c 00000018H .rdata$T                DATA
 0002:0000c754 00000aecH .rdata$r                DATA
 0002:0000d240 00000054H .rdata$sxdata           DATA
 0002:0000d294 00000398H .rdata$zzzdbg           DATA
 0002:0000d62c 00000004H .rtc$IAA                DATA
 0002:0000d630 00000004H .rtc$IZZ                DATA
 0002:0000d634 00000004H .rtc$TAA                DATA
 0002:0000d638 00000008H .rtc$TZZ                DATA
 0002:0000d640 00000d9cH .xdata$x                DATA
 0002:0000e3dc 00000000H .edata                  DATA
 0002:0000e3dc 0000003cH .idata$2                DATA
 0002:0000e418 00000014H .idata$3                DATA
 0002:0000e42c 00000168H .idata$4                DATA
 0002:0000e594 00000666H .idata$6                DATA
 0003:00000000 00000bd0H .data                   DATA
 0003:00000bd0 00000538H .data$r                 DATA
 0003:00001108 0000105cH .bss                    DATA
 0004:00000000 000000c0H .gfids$x                DATA
 0004:000000c0 00000104H .gfids$y                DATA
 0005:00000000 00000004H .tls                    DATA
 0005:00000004 00000004H .tls$                   DATA
 0005:00000008 00000001H .tls$ZZZ                DATA

  Address         Publics by Value              Rva+Base       Lib:Object

 0000:00000000       __except_list              00000000     <absolute>
 0000:00000000       ___guard_longjmp_count     00000000     <absolute>
 0000:00000000       ___guard_fids_count        00000000     <absolute>
 0000:00000000       ___guard_longjmp_table     00000000     <absolute>
 0000:00000000       ___guard_iat_table         00000000     <absolute>
 0000:00000000       ___guard_iat_count         00000000     <absolute>
 0000:00000000       ___guard_fids_table        00000000     <absolute>
 0000:00000000       ___dynamic_value_reloc_table 00000000     <absolute>
 0000:00000015       ___safe_se_handler_count   00000015     <absolute>
 0000:0000002c       __tls_array                0000002c     <absolute>
 0000:00000100       ___guard_flags             00000100     <absolute>
 0000:00000000       ___ImageBase               00400000     <linker-defined>
 0001:000002b0       _wWinMain@16               004012b0 f   implant.obj
 0001:00000380       ?sendHeartbeat@@YAXXZ      00401380 f   implant.obj
 0001:000004c0       ?sendFile@@YAXPAD0@Z       004014c0 f   implant.obj
 0001:00000830       ?registerImplant@@YAXXZ    00401830 f   implant.obj
 0001:00000a00       ?getMacAddr@@YAXPAPAD@Z    00401a00 f   implant.obj
 0001:00000af0       ?recvResponse@@YAHPAX@Z    00401af0 f   implant.obj
 0001:00000bd0       ?parseResponse@@YAHPAD@Z   00401bd0 f   implant.obj
 0001:00000c80       ?getFileData@@YAPADV?$basic_string@DU?$char_traits@D@std@@V?$allocator@D@2@@std@@PAH@Z 00401c80 f   implant.obj
 0001:00000d90       ?runImager@@YAXPBD@Z       00401d90 f   implant.obj
 0001:00000e00       ??$?0$$V@?$_Compressed_pair@U?$_Wrap_alloc@V?$allocator@D@std@@@std@@V?$_String_val@U?$_Simple_types@D@std@@@2@$00@std@@QAE@U_Zero_then_variadic_args_t@1@@Z 00401e00 f i implant.obj
 0001:00000e20       ??$?0$$V@?$_Compressed_pair@U?$_Wrap_alloc@V?$allocator@D@std@@@std@@V?$_Vector_val@U?$_Simple_types@D@std@@@2@$00@std@@QAE@U_Zero_then_variadic_args_t@1@@Z 00401e20 f i implant.obj
 0001:00000e40       ??$?0PADX@?$basic_string@DU?$char_traits@D@std@@V?$allocator@D@2@@std@@QAE@PAD0ABV?$allocator@D@1@@Z 00401e40 f i implant.obj
 0001:00000ea0       ??$?0ABV?$allocator@D@std@@$$V@?$_Compressed_pair@U?$_Wrap_alloc@V?$allocator@D@std@@@std@@V?$_String_val@U?$_Simple_types@D@std@@@2@$00@std@@QAE@U_One_then_variadic_args_t@1@ABV?$allocator@D@1@@Z 00401ea0 f i implant.obj
 0001:00000ea0       ??$?0U?$_Wrap_alloc@V?$allocator@D@std@@@std@@$$V@?$_Compressed_pair@U?$_Wrap_alloc@V?$allocator@D@std@@@std@@V?$_String_val@U?$_Simple_types@D@std@@@2@$00@std@@QAE@U_One_then_variadic_args_t@1@$$QAU?$_Wrap_alloc@V?$allocator@D@std@@@1@@Z 00401ea0 f i implant.obj
 0001:00000ed0       ??$?0ABV?$allocator@D@std@@X@?$_String_alloc@U?$_String_base_types@DV?$allocator@D@std@@@std@@@std@@QAE@ABV?$allocator@D@1@@Z 00401ed0 f i implant.obj
 0001:00000ed0       ??$?0U?$_Wrap_alloc@V?$allocator@D@std@@@std@@X@?$_String_alloc@U?$_String_base_types@DV?$allocator@D@std@@@std@@@std@@QAE@$$QAU?$_Wrap_alloc@V?$allocator@D@std@@@1@@Z 00401ed0 f i implant.obj
 0001:00000f00       ??$?0V?$_Vector_iterator@V?$_Vector_val@U?$_Simple_types@D@std@@@std@@@std@@X@?$basic_string@DU?$char_traits@D@std@@V?$allocator@D@2@@std@@QAE@V?$_Vector_iterator@V?$_Vector_val@U?$_Simple_types@D@std@@@std@@@1@0ABV?$allocator@D@1@@Z 00401f00 f i implant.obj
 0001:00000f60       ??$?0V?$allocator@D@std@@@?$_Wrap_alloc@V?$allocator@D@std@@@std@@QAE@$$QAV?$allocator@D@1@@Z 00401f60 f i implant.obj
 0001:00000f60       ??$?0ABV?$allocator@D@std@@@?$_Wrap_alloc@V?$allocator@D@std@@@std@@QAE@ABV?$allocator@D@1@@Z 00401f60 f i implant.obj
 0001:00000f60       ??0?$_Wrap_alloc@V?$allocator@D@std@@@std@@QAE@$$QAU01@@Z 00401f60 f i implant.obj
 0001:00000f90       ??$?6U?$char_traits@D@std@@@std@@YAAAV?$basic_ostream@DU?$char_traits@D@std@@@0@AAV10@PBD@Z 00401f90 f i implant.obj
 0001:00001270       ??$?8DD@std@@YA_NABV?$allocator@D@0@0@Z 00402270 f i implant.obj
 0001:00001280       ??$?8V?$allocator@D@std@@V01@@std@@YA_NABU?$_Wrap_alloc@V?$allocator@D@std@@@0@0@Z 00402280 f i implant.obj
 0001:000012a0       ??$?9DD@std@@YA_NABV?$allocator@D@0@0@Z 004022a0 f i implant.obj
 0001:000012b0       ??$?9V?$allocator@D@std@@V01@@std@@YA_NABU?$_Wrap_alloc@V?$allocator@D@std@@@0@0@Z 004022b0 f i implant.obj
 0001:000012f0       ??$_Destroy_range@V?$allocator@D@std@@PAD@std@@YAXPAD0AAU?$_Wrap_alloc@V?$allocator@D@std@@@0@@Z 004022f0 f i implant.obj
 0001:00001320       ??$_Fgetc@D@std@@YA_NAADPAU_iobuf@@@Z 00402320 f i implant.obj
 0001:00001350       ??$_Fputc@D@std@@YA_NDPAU_iobuf@@@Z 00402350 f i implant.obj
 0001:00001390       ??$_Getvals@D@?$numpunct@D@std@@IAEXDPBUlconv@@U_Cvtvec@@@Z 00402390 f i implant.obj
 0001:000013f0       ??$_Immortalize@V_Iostream_error_category@std@@@std@@YAAAV_Iostream_error_category@0@XZ 004023f0 f i implant.obj
 0001:00001450       ??$_Integral_to_string@DK@std@@YA?AV?$basic_string@DU?$char_traits@D@std@@V?$allocator@D@2@@0@K@Z 00402450 f i implant.obj
 0001:000014f0       ??$_Maklocchr@D@std@@YADDPADABU_Cvtvec@@@Z 004024f0 f i implant.obj
 0001:00001500       ??$_Maklocstr@D@std@@YAPADPBDPADABU_Cvtvec@@@Z 00402500 f i implant.obj
 0001:00001570       ??$_Pocca@U?$_Wrap_alloc@V?$allocator@D@std@@@std@@@std@@YAXAAU?$_Wrap_alloc@V?$allocator@D@std@@@0@ABU10@@Z 00402570 f i implant.obj
 0001:00001590       ??$_UIntegral_to_buff@DK@std@@YAPADPADK@Z 00402590 f i implant.obj
 0001:00001650       ??$_Unchecked@V?$_Vector_val@U?$_Simple_types@D@std@@@std@@@std@@YAPADV?$_Vector_iterator@V?$_Vector_val@U?$_Simple_types@D@std@@@std@@@0@@Z 00402650 f i implant.obj
 0001:00001660       ??$_Ungetc@D@std@@YA_NABDPAU_iobuf@@@Z 00402660 f i implant.obj
 0001:000016a0       ??$_Uninitialized_default_fill_n1@PADIV?$allocator@D@std@@@std@@YAXPADIAAU?$_Wrap_alloc@V?$allocator@D@std@@@0@U?$integral_constant@_N$00@0@@Z 004026a0 f i implant.obj
 0001:000016c0       ??$_Uninitialized_default_fill_n@PADIV?$allocator@D@std@@@std@@YAXPADIAAU?$_Wrap_alloc@V?$allocator@D@std@@@0@@Z 004026c0 f i implant.obj
 0001:000016f0       ??$_Destroy_range1@V?$allocator@D@std@@PAD@std@@YAXPAD0AAU?$_Wrap_alloc@V?$allocator@D@std@@@0@U?$integral_constant@_N$00@0@@Z 004026f0 f i implant.obj
 0001:000016f0       ??$__vcrt_va_start_verify_argument_type@QBD@@YAXXZ 004026f0 f i implant.obj
 0001:000016f0       ??$_Pocca@U?$_Wrap_alloc@V?$allocator@D@std@@@std@@@std@@YAXAAU?$_Wrap_alloc@V?$allocator@D@std@@@0@ABU10@U?$integral_constant@_N$0A@@0@@Z 004026f0 f i implant.obj
 0001:00001700       ??$construct@PADAAPAD@?$_Wrap_alloc@V?$allocator@D@std@@@std@@QAEXPAPADAAPAD@Z 00402700 f i implant.obj
 0001:00001730       ??$construct@PADAAPAD@?$allocator@D@std@@QAEXPAPADAAPAD@Z 00402730 f i implant.obj
 0001:00001780       ??$construct@PADAAPAD@?$allocator_traits@V?$allocator@D@std@@@std@@SAXAAV?$allocator@D@1@PAPADAAPAD@Z 00402780 f i implant.obj
 0001:000017a0       ??$destroy@PAD@?$_Wrap_alloc@V?$allocator@D@std@@@std@@QAEXPAPAD@Z 004027a0 f i implant.obj
 0001:000017c0       ??$destroy@PAD@?$allocator_traits@V?$allocator@D@std@@@std@@SAXAAV?$allocator@D@1@PAPAD@Z 004027c0 f i implant.obj
 0001:000017e0       ??$end@D$0BF@@std@@YAPADAAY0BF@D@Z 004027e0 f i implant.obj
 0001:000017f0       ??$endl@DU?$char_traits@D@std@@@std@@YAAAV?$basic_ostream@DU?$char_traits@D@std@@@0@AAV10@@Z 004027f0 f i implant.obj
 0001:00001820       ??$addressof@PAD@std@@YAPAPADAAPAD@Z 00402820 f i implant.obj
 0001:00001820       ??$move@AAU?$_Wrap_alloc@V?$allocator@D@std@@@std@@@std@@YA$$QAU?$_Wrap_alloc@V?$allocator@D@std@@@0@AAU10@@Z 00402820 f i implant.obj
 0001:00001820       ??$_Unchecked@PAD@std@@YAPADPAD@Z 00402820 f i implant.obj
 0001:00001820       ??$addressof@D@std@@YAPADAAD@Z 00402820 f i implant.obj
 0001:00001820       ??$forward@ABV?$allocator@D@std@@@std@@YAABV?$allocator@D@0@ABV10@@Z 00402820 f i implant.obj
 0001:00001820       ??$forward@AAPAD@std@@YAAAPADAAPAD@Z 00402820 f i implant.obj
 0001:00001820       ??$_Unfancy@D@std@@YAPADPAD@Z 00402820 f i implant.obj
 0001:00001820       ??$forward@V?$allocator@D@std@@@std@@YA$$QAV?$allocator@D@0@AAV10@@Z 00402820 f i implant.obj
 0001:00001820       ??$forward@U?$_Wrap_alloc@V?$allocator@D@std@@@std@@@std@@YA$$QAU?$_Wrap_alloc@V?$allocator@D@std@@@0@AAU10@@Z 00402820 f i implant.obj
 0001:00001820       ??$forward@V?$basic_string@DU?$char_traits@D@std@@V?$allocator@D@2@@std@@@std@@YA$$QAV?$basic_string@DU?$char_traits@D@std@@V?$allocator@D@2@@0@AAV10@@Z 00402820 f i implant.obj
 0001:00001830       ??$use_facet@V?$codecvt@DDU_Mbstatet@@@std@@@std@@YAABV?$codecvt@DDU_Mbstatet@@@0@ABVlocale@0@@Z 00402830 f i implant.obj
 0001:000018f0       ??$use_facet@V?$ctype@D@std@@@std@@YAABV?$ctype@D@0@ABVlocale@0@@Z 004028f0 f i implant.obj
 0001:000019b0       ??$use_facet@V?$num_put@DV?$ostreambuf_iterator@DU?$char_traits@D@std@@@std@@@std@@@std@@YAABV?$num_put@DV?$ostreambuf_iterator@DU?$char_traits@D@std@@@std@@@0@ABVlocale@0@@Z 004029b0 f i implant.obj
 0001:00001a70       ??$use_facet@V?$numpunct@D@std@@@std@@YAABV?$numpunct@D@0@ABVlocale@0@@Z 00402a70 f i implant.obj
 0001:00001b30       ??0?$_Immortalizer@V_Iostream_error_category@std@@@std@@QAE@XZ 00402b30 f i implant.obj
 0001:00001b70       ??0?$_String_alloc@U?$_String_base_types@DV?$allocator@D@std@@@std@@@std@@QAE@XZ 00402b70 f i implant.obj
 0001:00001b90       ??0?$_String_val@U?$_Simple_types@D@std@@@std@@QAE@XZ 00402b90 f i implant.obj
 0001:00001bc0       ??0?$_Vector_alloc@U?$_Vec_base_types@DV?$allocator@D@std@@@std@@@std@@QAE@XZ 00402bc0 f i implant.obj
 0001:00001be0       ??0?$_String_const_iterator@V?$_String_val@U?$_Simple_types@D@std@@@std@@@std@@QAE@PBDPBU_Container_base0@1@@Z 00402be0 f i implant.obj
 0001:00001be0       ??0?$_Vector_const_iterator@V?$_Vector_val@U?$_Simple_types@D@std@@@std@@@std@@QAE@PADPBU_Container_base0@1@@Z 00402be0 f i implant.obj
 0001:00001c10       ??0?$_Vector_iterator@V?$_Vector_val@U?$_Simple_types@D@std@@@std@@@std@@QAE@PADPBU_Container_base0@1@@Z 00402c10 f i implant.obj
 0001:00001c10       ??0?$_String_iterator@V?$_String_val@U?$_Simple_types@D@std@@@std@@@std@@QAE@PADPBU_Container_base0@1@@Z 00402c10 f i implant.obj
 0001:00001c30       ??0?$_Vector_val@U?$_Simple_types@D@std@@@std@@QAE@XZ 00402c30 f i implant.obj
 0001:00001c60       ??0?$_Wrap_alloc@V?$allocator@D@std@@@std@@QAE@XZ 00402c60 f i implant.obj
 0001:00001c80       ??0?$_Yarn@D@std@@QAE@XZ   00402c80 f i implant.obj
 0001:00001ca0       ??0?$_Yarn@_W@std@@QAE@XZ  00402ca0 f i implant.obj
 0001:00001cc0       ??0?$allocator@D@std@@QAE@ABV01@@Z 00402cc0 f i implant.obj
 0001:00001cd0       ??0?$basic_filebuf@DU?$char_traits@D@std@@@std@@QAE@PAU_iobuf@@@Z 00402cd0 f i implant.obj
 0001:00001d00       ??0?$basic_ifstream@DU?$char_traits@D@std@@@std@@QAE@ABV?$basic_string@DU?$char_traits@D@std@@V?$allocator@D@2@@1@HH@Z 00402d00 f i implant.obj
 0001:00001dc0       ??0?$basic_ios@DU?$char_traits@D@std@@@std@@IAE@XZ 00402dc0 f i implant.obj
 0001:00001de0       ??0?$basic_istream@DU?$char_traits@D@std@@@std@@QAE@PAV?$basic_streambuf@DU?$char_traits@D@std@@@1@_N@Z 00402de0 f i implant.obj
 0001:00001e70       ??0?$basic_streambuf@DU?$char_traits@D@std@@@std@@IAE@XZ 00402e70 f i implant.obj
 0001:00001ed0       ??0?$basic_string@DU?$char_traits@D@std@@V?$allocator@D@2@@std@@QAE@$$QAV01@@Z 00402ed0 f i implant.obj
 0001:00001f20       ??0?$basic_string@DU?$char_traits@D@std@@V?$allocator@D@2@@std@@QAE@ABV01@@Z 00402f20 f i implant.obj
 0001:00001f80       ??0?$basic_string@DU?$char_traits@D@std@@V?$allocator@D@2@@std@@QAE@ID@Z 00402f80 f i implant.obj
 0001:00001fc0       ??0?$basic_string@DU?$char_traits@D@std@@V?$allocator@D@2@@std@@QAE@PBD@Z 00402fc0 f i implant.obj
 0001:00001ff0       ??0?$basic_string@DU?$char_traits@D@std@@V?$allocator@D@2@@std@@QAE@XZ 00402ff0 f i implant.obj
 0001:00002020       ??0?$codecvt@DDU_Mbstatet@@@std@@QAE@ABV_Locinfo@1@I@Z 00403020 f i implant.obj
 0001:00002060       ??0?$ctype@D@std@@QAE@ABV_Locinfo@1@I@Z 00403060 f i implant.obj
 0001:000020a0       ??0?$fpos@U_Mbstatet@@@std@@QAE@U_Mbstatet@@_J@Z 004030a0 f i implant.obj
 0001:000020e0       ??0?$fpos@U_Mbstatet@@@std@@QAE@_J@Z 004030e0 f i implant.obj
 0001:00002120       ??0?$num_put@DV?$ostreambuf_iterator@DU?$char_traits@D@std@@@std@@@std@@QAE@ABV_Locinfo@1@I@Z 00403120 f i implant.obj
 0001:00002160       ??0?$numpunct@D@std@@QAE@ABV_Locinfo@1@I_N@Z 00403160 f i implant.obj
 0001:000021a0       ??0?$ostreambuf_iterator@DU?$char_traits@D@std@@@std@@QAE@PAV?$basic_streambuf@DU?$char_traits@D@std@@@1@@Z 004031a0 f i implant.obj
 0001:000021c0       ??0?$vector@DV?$allocator@D@std@@@std@@QAE@I@Z 004031c0 f i implant.obj
 0001:00002290       ??0_Facet_base@std@@QAE@XZ 00403290 f i implant.obj
 0001:000022b0       ??0_Generic_error_category@std@@QAE@XZ 004032b0 f i implant.obj
 0001:000022e0       ??0_Iostream_error_category@std@@QAE@XZ 004032e0 f i implant.obj
 0001:00002310       ??0_Locinfo@std@@QAE@PBD@Z 00403310 f i implant.obj
 0001:000023a0       ??0_Sentry_base@?$basic_ostream@DU?$char_traits@D@std@@@std@@QAE@AAV12@@Z 004033a0 f i implant.obj
 0001:000023a0       ??0_Sentry_base@?$basic_istream@DU?$char_traits@D@std@@@std@@QAE@AAV12@@Z 004033a0 f i implant.obj
 0001:00002400       ??0_System_error@std@@IAE@Verror_code@1@ABV?$basic_string@DU?$char_traits@D@std@@V?$allocator@D@2@@1@@Z 00403400 f i implant.obj
 0001:00002480       ??0_System_error@std@@QAE@ABV01@@Z 00403480 f i implant.obj
 0001:000024c0       ??0bad_cast@std@@QAE@ABV01@@Z 004034c0 f i implant.obj
 0001:000024f0       ??0bad_cast@std@@QAE@XZ    004034f0 f i implant.obj
 0001:00002520       ??0codecvt_base@std@@QAE@I@Z 00403520 f i implant.obj
 0001:00002550       ??0ctype_base@std@@QAE@I@Z 00403550 f i implant.obj
 0001:00002580       ??0error_category@std@@QAE@XZ 00403580 f i implant.obj
 0001:000025a0       ??0error_condition@std@@QAE@HABVerror_category@1@@Z 004035a0 f i implant.obj
 0001:000025a0       ??0error_code@std@@QAE@HABVerror_category@1@@Z 004035a0 f i implant.obj
 0001:000025d0       ??0exception@std@@QAE@ABV01@@Z 004035d0 f i implant.obj
 0001:00002610       ??0exception@std@@QAE@QBD@Z 00403610 f i implant.obj
 0001:00002660       ??0exception@std@@QAE@QBDH@Z 00403660 f i implant.obj
 0001:00002690       ??0facet@locale@std@@IAE@I@Z 00403690 f i implant.obj
 0001:000026d0       ??0failure@ios_base@std@@QAE@ABV012@@Z 004036d0 f i implant.obj
 0001:00002700       ??0failure@ios_base@std@@QAE@PBDABVerror_code@2@@Z 00403700 f i implant.obj
 0001:00002730       ??0id@locale@std@@QAE@I@Z  00403730 f i implant.obj
 0001:00002750       ??0ios_base@std@@IAE@XZ    00403750 f i implant.obj
 0001:00002770       ??0locale@std@@QAE@ABV01@@Z 00403770 f i implant.obj
 0001:000027a0       ??0locale@std@@QAE@XZ      004037a0 f i implant.obj
 0001:000027c0       ??0runtime_error@std@@QAE@ABV01@@Z 004037c0 f i implant.obj
 0001:000027f0       ??0runtime_error@std@@QAE@ABV?$basic_string@DU?$char_traits@D@std@@V?$allocator@D@2@@1@@Z 004037f0 f i implant.obj
 0001:00002820       ??0runtime_error@std@@QAE@PBD@Z 00403820 f i implant.obj
 0001:00002850       ??0sentry@?$basic_istream@DU?$char_traits@D@std@@@std@@QAE@AAV12@_N@Z 00403850 f i implant.obj
 0001:00002890       ??0sentry@?$basic_ostream@DU?$char_traits@D@std@@@std@@QAE@AAV12@@Z 00403890 f i implant.obj
 0001:00002920       ??0system_error@std@@QAE@ABV01@@Z 00403920 f i implant.obj
 0001:00002950       ??0system_error@std@@QAE@Verror_code@1@PBD@Z 00403950 f i implant.obj
 0001:000029b0       ??1?$_Compressed_pair@U?$_Wrap_alloc@V?$allocator@D@std@@@std@@V?$_String_val@U?$_Simple_types@D@std@@@2@$00@std@@QAE@XZ 004039b0 f i implant.obj
 0001:000029d0       ??1?$_String_alloc@U?$_String_base_types@DV?$allocator@D@std@@@std@@@std@@QAE@XZ 004039d0 f i implant.obj
 0001:000029f0       ??1?$_String_val@U?$_Simple_types@D@std@@@std@@QAE@XZ 004039f0 f i implant.obj
 0001:00002a10       ??1?$_Yarn@_W@std@@QAE@XZ  00403a10 f i implant.obj
 0001:00002a10       ??1?$_Yarn@D@std@@QAE@XZ   00403a10 f i implant.obj
 0001:00002a30       ??1?$basic_filebuf@DU?$char_traits@D@std@@@std@@UAE@XZ 00403a30 f i implant.obj
 0001:00002a70       ??1?$basic_ifstream@DU?$char_traits@D@std@@@std@@UAE@XZ 00403a70 f i implant.obj
 0001:00002ad0       ??1?$basic_ios@DU?$char_traits@D@std@@@std@@UAE@XZ 00403ad0 f i implant.obj
 0001:00002af0       ??1?$basic_istream@DU?$char_traits@D@std@@@std@@UAE@XZ 00403af0 f i implant.obj
 0001:00002b30       ??1?$basic_streambuf@DU?$char_traits@D@std@@@std@@UAE@XZ 00403b30 f i implant.obj
 0001:00002b80       ??1?$basic_string@DU?$char_traits@D@std@@V?$allocator@D@2@@std@@QAE@XZ 00403b80 f i implant.obj
 0001:00002ba0       ??1?$codecvt@DDU_Mbstatet@@@std@@MAE@XZ 00403ba0 f i implant.obj
 0001:00002bc0       ??1?$ctype@D@std@@MAE@XZ   00403bc0 f i implant.obj
 0001:00002bf0       ??1?$num_put@DV?$ostreambuf_iterator@DU?$char_traits@D@std@@@std@@@std@@MAE@XZ 00403bf0 f i implant.obj
 0001:00002c10       ??1?$numpunct@D@std@@MAE@XZ 00403c10 f i implant.obj
 0001:00002c40       ??1?$vector@DV?$allocator@D@std@@@std@@QAE@XZ 00403c40 f i implant.obj
 0001:00002c60       ??1_Facet_base@std@@UAE@XZ 00403c60 f i implant.obj
 0001:00002c80       ??1_Generic_error_category@std@@UAE@XZ 00403c80 f i implant.obj
 0001:00002ca0       ??1_Iostream_error_category@std@@UAE@XZ 00403ca0 f i implant.obj
 0001:00002cc0       ??1_Locinfo@std@@QAE@XZ    00403cc0 f i implant.obj
 0001:00002d30       ??1_Sentry_base@?$basic_istream@DU?$char_traits@D@std@@@std@@QAE@XZ 00403d30 f i implant.obj
 0001:00002d30       ??1_Sentry_base@?$basic_ostream@DU?$char_traits@D@std@@@std@@QAE@XZ 00403d30 f i implant.obj
 0001:00002d90       ??1_System_error@std@@UAE@XZ 00403d90 f i implant.obj
 0001:00002db0       ??1codecvt_base@std@@UAE@XZ 00403db0 f i implant.obj
 0001:00002dd0       ??1ctype_base@std@@UAE@XZ  00403dd0 f i implant.obj
 0001:00002df0       ??1error_category@std@@UAE@XZ 00403df0 f i implant.obj
 0001:00002e10       ??1exception@std@@UAE@XZ   00403e10 f i implant.obj
 0001:00002e40       ??1facet@locale@std@@MAE@XZ 00403e40 f i implant.obj
 0001:00002e60       ??1failure@ios_base@std@@UAE@XZ 00403e60 f i implant.obj
 0001:00002e80       ??1ios_base@std@@UAE@XZ    00403e80 f i implant.obj
 0001:00002ea0       ??1locale@std@@QAE@XZ      00403ea0 f i implant.obj
 0001:00002f00       ??1bad_cast@std@@UAE@XZ    00403f00 f i implant.obj
 0001:00002f00       ??1runtime_error@std@@UAE@XZ 00403f00 f i implant.obj
 0001:00002f20       ??1sentry@?$basic_istream@DU?$char_traits@D@std@@@std@@QAE@XZ 00403f20 f i implant.obj
 0001:00002f40       ??1sentry@?$basic_ostream@DU?$char_traits@D@std@@@std@@QAE@XZ 00403f40 f i implant.obj
 0001:00002f70       ??1system_error@std@@UAE@XZ 00403f70 f i implant.obj
 0001:00002f90       ??2@YAPAXIPAX@Z            00403f90 f i implant.obj
 0001:00002fa0       ??4?$basic_string@DU?$char_traits@D@std@@V?$allocator@D@2@@std@@QAEAAV01@ABV01@@Z 00403fa0 f i implant.obj
 0001:00003010       ??4?$ostreambuf_iterator@DU?$char_traits@D@std@@@std@@QAEAAV01@D@Z 00404010 f i implant.obj
 0001:00003070       ??6?$basic_ostream@DU?$char_traits@D@std@@@std@@QAEAAV01@K@Z 00404070 f i implant.obj
 0001:000031e0       ??6?$basic_ostream@DU?$char_traits@D@std@@@std@@QAEAAV01@P6AAAV01@AAV01@@Z@Z 004041e0 f i implant.obj
 0001:00003200       ??8error_category@std@@QBE_NABV01@@Z 00404200 f i implant.obj
 0001:00003230       ??8std@@YA_NABVerror_condition@0@0@Z 00404230 f i implant.obj
 0001:00003290       ??A?$basic_string@DU?$char_traits@D@std@@V?$allocator@D@2@@std@@QAEAADI@Z 00404290 f i implant.obj
 0001:00003290       ??A?$basic_string@DU?$char_traits@D@std@@V?$allocator@D@2@@std@@QBEABDI@Z 00404290 f i implant.obj
 0001:000032b0       ??A?$vector@DV?$allocator@D@std@@@std@@QAEAADI@Z 004042b0 f i implant.obj
 0001:000032d0       ??B?$fpos@U_Mbstatet@@@std@@QBE_JXZ 004042d0 f i implant.obj
 0001:00003300       ??Bid@locale@std@@QAEIXZ   00404300 f i implant.obj
 0001:00003350       ??Bsentry@?$basic_ostream@DU?$char_traits@D@std@@@std@@QBE_NXZ 00404350 f i implant.obj
 0001:00003350       ??Bsentry@?$basic_istream@DU?$char_traits@D@std@@@std@@QBE_NXZ 00404350 f i implant.obj
 0001:00003370       ?value@error_condition@std@@QBEHXZ 00404370 f i implant.obj
 0001:00003370       ?value@error_code@std@@QBEHXZ 00404370 f i implant.obj
 0001:00003370       ?_Unchecked@?$_Vector_iterator@V?$_Vector_val@U?$_Simple_types@D@std@@@std@@@std@@QBEPADXZ 00404370 f i implant.obj
 0001:00003370       ??D?$_String_const_iterator@V?$_String_val@U?$_Simple_types@D@std@@@std@@@std@@QBEABDXZ 00404370 f i implant.obj
 0001:00003380       ??D?$_String_iterator@V?$_String_val@U?$_Simple_types@D@std@@@std@@@std@@QBEAADXZ 00404380 f i implant.obj
 0001:000033a0       ?_Get_second@?$_Compressed_pair@U?$_Wrap_alloc@V?$allocator@D@std@@@std@@V?$_String_val@U?$_Simple_types@D@std@@@2@$00@std@@QAEAAV?$_String_val@U?$_Simple_types@D@std@@@2@XZ 004043a0 f i implant.obj
 0001:000033a0       ??0?$allocator@D@std@@QAE@XZ 004043a0 f i implant.obj
 0001:000033a0       ?_Get_first@?$_Compressed_pair@U?$_Wrap_alloc@V?$allocator@D@std@@@std@@V?$_String_val@U?$_Simple_types@D@std@@@2@$00@std@@QAEAAU?$_Wrap_alloc@V?$allocator@D@std@@@2@XZ 004043a0 f i implant.obj
 0001:000033a0       ?_Get_second@?$_Compressed_pair@U?$_Wrap_alloc@V?$allocator@D@std@@@std@@V?$_Vector_val@U?$_Simple_types@D@std@@@2@$00@std@@QAEAAV?$_Vector_val@U?$_Simple_types@D@std@@@2@XZ 004043a0 f i implant.obj
 0001:000033a0       ?_Get_first@?$_Compressed_pair@U?$_Wrap_alloc@V?$allocator@D@std@@@std@@V?$_String_val@U?$_Simple_types@D@std@@@2@$00@std@@QBEABU?$_Wrap_alloc@V?$allocator@D@std@@@2@XZ 004043a0 f i implant.obj
 0001:000033a0       ??0_Bxty@?$_String_val@U?$_Simple_types@D@std@@@std@@QAE@XZ 004043a0 f i implant.obj
 0001:000033a0       ??D?$ostreambuf_iterator@DU?$char_traits@D@std@@@std@@QAEAAV01@XZ 004043a0 f i implant.obj
 0001:000033a0       ?_Get_first@?$_Compressed_pair@U?$_Wrap_alloc@V?$allocator@D@std@@@std@@V?$_Vector_val@U?$_Simple_types@D@std@@@2@$00@std@@QBEABU?$_Wrap_alloc@V?$allocator@D@std@@@2@XZ 004043a0 f i implant.obj
 0001:000033a0       ?_Get_second@?$_Compressed_pair@U?$_Wrap_alloc@V?$allocator@D@std@@@std@@V?$_String_val@U?$_Simple_types@D@std@@@2@$00@std@@QBEABV?$_String_val@U?$_Simple_types@D@std@@@2@XZ 004043a0 f i implant.obj
 0001:000033a0       ??E?$ostreambuf_iterator@DU?$char_traits@D@std@@@std@@QAEAAV01@XZ 004043a0 f i implant.obj
 0001:000033a0       ?_Get_first@?$_Compressed_pair@U?$_Wrap_alloc@V?$allocator@D@std@@@std@@V?$_Vector_val@U?$_Simple_types@D@std@@@2@$00@std@@QAEAAU?$_Wrap_alloc@V?$allocator@D@std@@@2@XZ 004043a0 f i implant.obj
 0001:000033b0       ??_D?$basic_ifstream@DU?$char_traits@D@std@@@std@@QAEXXZ 004043b0 f i implant.obj
 0001:000033e0       ??_D?$basic_istream@DU?$char_traits@D@std@@@std@@QAEXXZ 004043e0 f i implant.obj
 0001:00003401       ??_E?$basic_ifstream@DU?$char_traits@D@std@@@std@@$4PPPPPPPM@A@AEPAXI@Z 00404401 f i implant.obj
 0001:00003409       ??_E?$basic_istream@DU?$char_traits@D@std@@@std@@$4PPPPPPPM@A@AEPAXI@Z 00404409 f i implant.obj
 0001:00003420       ??_G?$basic_filebuf@DU?$char_traits@D@std@@@std@@UAEPAXI@Z 00404420 f i implant.obj
 0001:00003420       ??_E?$basic_filebuf@DU?$char_traits@D@std@@@std@@UAEPAXI@Z 00404420 f i implant.obj
 0001:00003450       ??_G?$basic_ifstream@DU?$char_traits@D@std@@@std@@UAEPAXI@Z 00404450 f i implant.obj
 0001:00003450       ??_E?$basic_ifstream@DU?$char_traits@D@std@@@std@@UAEPAXI@Z 00404450 f i implant.obj
 0001:00003490       ??_E?$basic_ios@DU?$char_traits@D@std@@@std@@UAEPAXI@Z 00404490 f i implant.obj
 0001:00003490       ??_G?$basic_ios@DU?$char_traits@D@std@@@std@@UAEPAXI@Z 00404490 f i implant.obj
 0001:000034c0       ??_G?$basic_istream@DU?$char_traits@D@std@@@std@@UAEPAXI@Z 004044c0 f i implant.obj
 0001:000034c0       ??_E?$basic_istream@DU?$char_traits@D@std@@@std@@UAEPAXI@Z 004044c0 f i implant.obj
 0001:00003500       ??_E?$basic_streambuf@DU?$char_traits@D@std@@@std@@UAEPAXI@Z 00404500 f i implant.obj
 0001:00003500       ??_G?$basic_streambuf@DU?$char_traits@D@std@@@std@@UAEPAXI@Z 00404500 f i implant.obj
 0001:00003530       ??_G?$codecvt@DDU_Mbstatet@@@std@@MAEPAXI@Z 00404530 f i implant.obj
 0001:00003530       ??_E?$codecvt@DDU_Mbstatet@@@std@@MAEPAXI@Z 00404530 f i implant.obj
 0001:00003560       ??_G?$ctype@D@std@@MAEPAXI@Z 00404560 f i implant.obj
 0001:00003560       ??_E?$ctype@D@std@@MAEPAXI@Z 00404560 f i implant.obj
 0001:00003590       ??_G?$num_put@DV?$ostreambuf_iterator@DU?$char_traits@D@std@@@std@@@std@@MAEPAXI@Z 00404590 f i implant.obj
 0001:00003590       ??_E?$num_put@DV?$ostreambuf_iterator@DU?$char_traits@D@std@@@std@@@std@@MAEPAXI@Z 00404590 f i implant.obj
 0001:000035c0       ??_E?$numpunct@D@std@@MAEPAXI@Z 004045c0 f i implant.obj
 0001:000035c0       ??_G?$numpunct@D@std@@MAEPAXI@Z 004045c0 f i implant.obj
 0001:000035f0       ??_E_Facet_base@std@@UAEPAXI@Z 004045f0 f i implant.obj
 0001:000035f0       ??_G_Facet_base@std@@UAEPAXI@Z 004045f0 f i implant.obj
 0001:00003620       ??_G_Generic_error_category@std@@UAEPAXI@Z 00404620 f i implant.obj
 0001:00003620       ??_E_Generic_error_category@std@@UAEPAXI@Z 00404620 f i implant.obj
 0001:00003650       ??_E_Iostream_error_category@std@@UAEPAXI@Z 00404650 f i implant.obj
 0001:00003650       ??_G_Iostream_error_category@std@@UAEPAXI@Z 00404650 f i implant.obj
 0001:00003680       ??_E_System_error@std@@UAEPAXI@Z 00404680 f i implant.obj
 0001:00003680       ??_G_System_error@std@@UAEPAXI@Z 00404680 f i implant.obj
 0001:000036b0       ??_Ecodecvt_base@std@@UAEPAXI@Z 004046b0 f i implant.obj
 0001:000036b0       ??_Gcodecvt_base@std@@UAEPAXI@Z 004046b0 f i implant.obj
 0001:000036e0       ??_Gctype_base@std@@UAEPAXI@Z 004046e0 f i implant.obj
 0001:000036e0       ??_Ectype_base@std@@UAEPAXI@Z 004046e0 f i implant.obj
 0001:00003710       ??_Eerror_category@std@@UAEPAXI@Z 00404710 f i implant.obj
 0001:00003710       ??_Gerror_category@std@@UAEPAXI@Z 00404710 f i implant.obj
 0001:00003740       ??_Eexception@std@@UAEPAXI@Z 00404740 f i implant.obj
 0001:00003740       ??_Gexception@std@@UAEPAXI@Z 00404740 f i implant.obj
 0001:00003770       ??_Efacet@locale@std@@MAEPAXI@Z 00404770 f i implant.obj
 0001:00003770       ??_Gfacet@locale@std@@MAEPAXI@Z 00404770 f i implant.obj
 0001:000037a0       ??_Efailure@ios_base@std@@UAEPAXI@Z 004047a0 f i implant.obj
 0001:000037a0       ??_Gfailure@ios_base@std@@UAEPAXI@Z 004047a0 f i implant.obj
 0001:000037d0       ??_Gios_base@std@@UAEPAXI@Z 004047d0 f i implant.obj
 0001:000037d0       ??_Eios_base@std@@UAEPAXI@Z 004047d0 f i implant.obj
 0001:00003800       ??_Glocale@std@@QAEPAXI@Z  00404800 f i implant.obj
 0001:00003830       ??_Eruntime_error@std@@UAEPAXI@Z 00404830 f i implant.obj
 0001:00003830       ??_Gbad_cast@std@@UAEPAXI@Z 00404830 f i implant.obj
 0001:00003830       ??_Gruntime_error@std@@UAEPAXI@Z 00404830 f i implant.obj
 0001:00003830       ??_Ebad_cast@std@@UAEPAXI@Z 00404830 f i implant.obj
 0001:00003860       ??_Gsystem_error@std@@UAEPAXI@Z 00404860 f i implant.obj
 0001:00003860       ??_Esystem_error@std@@UAEPAXI@Z 00404860 f i implant.obj
 0001:00003890       ?_Allocate@std@@YAPAXII_N@Z 00404890 f i implant.obj
 0001:00003950       ?_Assign_rv@?$basic_string@DU?$char_traits@D@std@@V?$allocator@D@2@@std@@QAEX$$QAV12@@Z 00404950 f i implant.obj
 0001:00003a10       ?_Buy@?$vector@DV?$allocator@D@std@@@std@@IAE_NI@Z 00404a10 f i implant.obj
 0001:00003ac0       ?_Chassign@?$basic_string@DU?$char_traits@D@std@@V?$allocator@D@2@@std@@QAEXIID@Z 00404ac0 f i implant.obj
 0001:00003b10       ?_Check_offset@?$basic_string@DU?$char_traits@D@std@@V?$allocator@D@2@@std@@QBEXI@Z 00404b10 f i implant.obj
 0001:00003b40       ?_Clamp_suffix_size@?$basic_string@DU?$char_traits@D@std@@V?$allocator@D@2@@std@@QBEIII@Z 00404b40 f i implant.obj
 0001:00003b80       ?_Construct@?$basic_string@DU?$char_traits@D@std@@V?$allocator@D@2@@std@@QAEXPAD0Urandom_access_iterator_tag@2@@Z 00404b80 f i implant.obj
 0001:00003bb0       ?_Copy@?$basic_string@DU?$char_traits@D@std@@V?$allocator@D@2@@std@@QAEXII@Z 00404bb0 f i implant.obj
 0001:00003d80       ?_Copy_alloc@?$_String_alloc@U?$_String_base_types@DV?$allocator@D@std@@@std@@@std@@QAEXABU?$_Wrap_alloc@V?$allocator@D@std@@@2@@Z 00404d80 f i implant.obj
 0001:00003db0       ?_Deallocate@std@@YAXPAXII@Z 00404db0 f i implant.obj
 0001:00003e50       ?_Decref@facet@locale@std@@UAEPAV_Facet_base@3@XZ 00404e50 f i implant.obj
 0001:00003e80       ?_Destroy@?$vector@DV?$allocator@D@std@@@std@@IAEXPAD0@Z 00404e80 f i implant.obj
 0001:00003eb0       ?_Endwrite@?$basic_filebuf@DU?$char_traits@D@std@@@std@@IAE_NXZ 00404eb0 f i implant.obj
 0001:00004070       ?_Eos@?$basic_string@DU?$char_traits@D@std@@V?$allocator@D@2@@std@@QAEXI@Z 00405070 f i implant.obj
 0001:000040b0       ?_Ffmt@?$num_put@DV?$ostreambuf_iterator@DU?$char_traits@D@std@@@std@@@std@@ABAPADPADDH@Z 004050b0 f i implant.obj
 0001:000041f0       ?_Fput@?$num_put@DV?$ostreambuf_iterator@DU?$char_traits@D@std@@@std@@@std@@ABA?AV?$ostreambuf_iterator@DU?$char_traits@D@std@@@2@V32@AAVios_base@2@DPBDI@Z 004051f0 f i implant.obj
 0001:00004660       ?_Getal@?$_String_alloc@U?$_String_base_types@DV?$allocator@D@std@@@std@@@std@@QBEABU?$_Wrap_alloc@V?$allocator@D@std@@@2@XZ 00405660 f i implant.obj
 0001:00004660       ?_Getal@?$_String_alloc@U?$_String_base_types@DV?$allocator@D@std@@@std@@@std@@QAEAAU?$_Wrap_alloc@V?$allocator@D@std@@@2@XZ 00405660 f i implant.obj
 0001:00004660       ?_Get_data@?$_String_alloc@U?$_String_base_types@DV?$allocator@D@std@@@std@@@std@@QAEAAV?$_String_val@U?$_Simple_types@D@std@@@2@XZ 00405660 f i implant.obj
 0001:00004660       ?_Get_data@?$_String_alloc@U?$_String_base_types@DV?$allocator@D@std@@@std@@@std@@QBEABV?$_String_val@U?$_Simple_types@D@std@@@2@XZ 00405660 f i implant.obj
 0001:00004660       ?_Get_data@?$_Vector_alloc@U?$_Vec_base_types@DV?$allocator@D@std@@@std@@@std@@QAEAAV?$_Vector_val@U?$_Simple_types@D@std@@@2@XZ 00405660 f i implant.obj
 0001:00004660       ?_Getal@?$_Vector_alloc@U?$_Vec_base_types@DV?$allocator@D@std@@@std@@@std@@QBEABU?$_Wrap_alloc@V?$allocator@D@std@@@2@XZ 00405660 f i implant.obj
 0001:00004660       ?_Getal@?$_Vector_alloc@U?$_Vec_base_types@DV?$allocator@D@std@@@std@@@std@@QAEAAU?$_Wrap_alloc@V?$allocator@D@std@@@2@XZ 00405660 f i implant.obj
 0001:00004680       ?_Getcat@?$codecvt@DDU_Mbstatet@@@std@@SAIPAPBVfacet@locale@2@PBV42@@Z 00405680 f i implant.obj
 0001:00004700       ?_Getcat@?$ctype@D@std@@SAIPAPBVfacet@locale@2@PBV42@@Z 00405700 f i implant.obj
 0001:00004780       ?_Getcat@?$num_put@DV?$ostreambuf_iterator@DU?$char_traits@D@std@@@std@@@std@@SAIPAPBVfacet@locale@2@PBV42@@Z 00405780 f i implant.obj
 0001:00004800       ?_Getcat@?$numpunct@D@std@@SAIPAPBVfacet@locale@2@PBV42@@Z 00405800 f i implant.obj
 0001:00004890       ?_Getctype@_Locinfo@std@@QBE?AU_Ctypevec@@XZ 00405890 f i implant.obj
 0001:000048e0       ?_Getcvt@_Locinfo@std@@QBE?AU_Cvtvec@@XZ 004058e0 f i implant.obj
 0001:00004930       ?_Getfacet@locale@std@@QBEPBVfacet@12@I@Z 00405930 f i implant.obj
 0001:000049c0       ?_Getfalse@_Locinfo@std@@QBEPBDXZ 004059c0 f i implant.obj
 0001:000049d0       ?_Getlconv@_Locinfo@std@@QBEPBUlconv@@XZ 004059d0 f i implant.obj
 0001:000049e0       ?_Gettrue@_Locinfo@std@@QBEPBDXZ 004059e0 f i implant.obj
 0001:000049f0       ?_Gnavail@?$basic_streambuf@DU?$char_traits@D@std@@@std@@IBE_JXZ 004059f0 f i implant.obj
 0001:00004a20       ?_Gndec@?$basic_streambuf@DU?$char_traits@D@std@@@std@@IAEPADXZ 00405a20 f i implant.obj
 0001:00004a60       ?_Gninc@?$basic_streambuf@DU?$char_traits@D@std@@@std@@IAEPADXZ 00405a60 f i implant.obj
 0001:00004ab0       ?_Gnpreinc@?$basic_streambuf@DU?$char_traits@D@std@@@std@@IAEPADXZ 00405ab0 f i implant.obj
 0001:00004af0       ?_Grow@?$basic_string@DU?$char_traits@D@std@@V?$allocator@D@2@@std@@QAE_NI_N@Z 00405af0 f i implant.obj
 0001:00004bb0       ?_Ifmt@?$num_put@DV?$ostreambuf_iterator@DU?$char_traits@D@std@@@std@@@std@@ABAPADPADPBDH@Z 00405bb0 f i implant.obj
 0001:00004cd0       ?_Incref@facet@locale@std@@UAEXXZ 00405cd0 f i implant.obj
 0001:00004cf0       ?_Init@?$basic_filebuf@DU?$char_traits@D@std@@@std@@IAEXPAU_iobuf@@W4_Initfl@12@@Z 00405cf0 f i implant.obj
 0001:00004dc0       ?_Init@?$basic_streambuf@DU?$char_traits@D@std@@@std@@IAEXPAPAD0PAH001@Z 00405dc0 f i implant.obj
 0001:00004e10       ?_Init@?$basic_streambuf@DU?$char_traits@D@std@@@std@@IAEXXZ 00405e10 f i implant.obj
 0001:00004e80       ?_Init@?$num_put@DV?$ostreambuf_iterator@DU?$char_traits@D@std@@@std@@@std@@IAEXABV_Locinfo@2@@Z 00405e80 f i implant.obj
 0001:00004e80       ?imbue@?$basic_streambuf@DU?$char_traits@D@std@@@std@@MAEXABVlocale@2@@Z 00405e80 f i implant.obj
 0001:00004e80       ??$destroy@PAD@?$allocator@D@std@@QAEXPAPAD@Z 00405e80 f i implant.obj
 0001:00004e80       ?_Init@?$codecvt@DDU_Mbstatet@@@std@@IAEXABV_Locinfo@2@@Z 00405e80 f i implant.obj
 0001:00004e80       ?_Adopt@_Iterator_base0@std@@QAEXPBX@Z 00405e80 f i implant.obj
 0001:00004e90       ?_Init@?$ctype@D@std@@IAEXABV_Locinfo@2@@Z 00405e90 f i implant.obj
 0001:00004ed0       ?_Init@?$numpunct@D@std@@IAEXABV_Locinfo@2@_N@Z 00405ed0 f i implant.obj
 0001:00005050       ?_Init@ios_base@std@@IAEXXZ 00406050 f i implant.obj
 0001:00005100       ?_Init_atomic_counter@std@@YAXAAKK@Z 00406100 f i implant.obj
 0001:00005110       ?_Initcvt@?$basic_filebuf@DU?$char_traits@D@std@@@std@@IAEXPBV?$codecvt@DDU_Mbstatet@@@2@@Z 00406110 f i implant.obj
 0001:00005150       ?_Inside@?$basic_string@DU?$char_traits@D@std@@V?$allocator@D@2@@std@@QAE_NPBD@Z 00406150 f i implant.obj
 0001:000051a0       ?_Ipfx@?$basic_istream@DU?$char_traits@D@std@@@std@@QAE_N_N@Z 004061a0 f i implant.obj
 0001:00005380       ?_Iput@?$num_put@DV?$ostreambuf_iterator@DU?$char_traits@D@std@@@std@@@std@@ABA?AV?$ostreambuf_iterator@DU?$char_traits@D@std@@@2@V32@AAVios_base@2@DPADI@Z 00406380 f i implant.obj
 0001:00005740       ?_Lock@?$basic_filebuf@DU?$char_traits@D@std@@@std@@UAEXXZ 00406740 f i implant.obj
 0001:00005770       ?_Makestr@_System_error@std@@CA?AV?$basic_string@DU?$char_traits@D@std@@V?$allocator@D@2@@2@Verror_code@2@V32@@Z 00406770 f i implant.obj
 0001:000057e0       ?_Myend@?$_Vector_alloc@U?$_Vec_base_types@DV?$allocator@D@std@@@std@@@std@@QAEAAPADXZ 004067e0 f i implant.obj
 0001:00005800       ?_Myfirst@?$_Vector_alloc@U?$_Vec_base_types@DV?$allocator@D@std@@@std@@@std@@QAEAAPADXZ 00406800 f i implant.obj
 0001:00005800       ?_Bx@?$_String_alloc@U?$_String_base_types@DV?$allocator@D@std@@@std@@@std@@QAEAAT_Bxty@?$_String_val@U?$_Simple_types@D@std@@@2@XZ 00406800 f i implant.obj
 0001:00005820       ?_Mylast@?$_Vector_alloc@U?$_Vec_base_types@DV?$allocator@D@std@@@std@@@std@@QAEAAPADXZ 00406820 f i implant.obj
 0001:00005840       ?_Myptr@?$_String_alloc@U?$_String_base_types@DV?$allocator@D@std@@@std@@@std@@QAEPADXZ 00406840 f i implant.obj
 0001:00005840       ?_Myptr@?$_String_alloc@U?$_String_base_types@DV?$allocator@D@std@@@std@@@std@@QBEPBDXZ 00406840 f i implant.obj
 0001:00005860       ?_Myptr@?$_String_val@U?$_Simple_types@D@std@@@std@@QBEPBDXZ 00406860 f i implant.obj
 0001:00005860       ?_Myptr@?$_String_val@U?$_Simple_types@D@std@@@std@@QAEPADXZ 00406860 f i implant.obj
 0001:000058a0       ?_Myres@?$_String_alloc@U?$_String_base_types@DV?$allocator@D@std@@@std@@@std@@QAEAAIXZ 004068a0 f i implant.obj
 0001:000058c0       ?_Mysize@?$_String_alloc@U?$_String_base_types@DV?$allocator@D@std@@@std@@@std@@QAEAAIXZ 004068c0 f i implant.obj
 0001:000058c0       ?_Mysize@?$_String_alloc@U?$_String_base_types@DV?$allocator@D@std@@@std@@@std@@QBEABIXZ 004068c0 f i implant.obj
 0001:000058e0       ?_Orphan_all@?$_Vector_alloc@U?$_Vec_base_types@DV?$allocator@D@std@@@std@@@std@@QAEXXZ 004068e0 f i implant.obj
 0001:00005900       ?_Osfx@?$basic_ostream@DU?$char_traits@D@std@@@std@@QAEXXZ 00406900 f i implant.obj
 0001:000059c0       ?_Pnavail@?$basic_streambuf@DU?$char_traits@D@std@@@std@@IBE_JXZ 004069c0 f i implant.obj
 0001:000059f0       ?_Pninc@?$basic_streambuf@DU?$char_traits@D@std@@@std@@IAEPADXZ 004069f0 f i implant.obj
 0001:00005a40       ?_Put@?$num_put@DV?$ostreambuf_iterator@DU?$char_traits@D@std@@@std@@@std@@ABA?AV?$ostreambuf_iterator@DU?$char_traits@D@std@@@2@V32@PBDI@Z 00406a40 f i implant.obj
 0001:00005a90       ?_Rep@?$num_put@DV?$ostreambuf_iterator@DU?$char_traits@D@std@@@std@@@std@@ABA?AV?$ostreambuf_iterator@DU?$char_traits@D@std@@@2@V32@DI@Z 00406a90 f i implant.obj
 0001:00005ae0       ?_Reset_back@?$basic_filebuf@DU?$char_traits@D@std@@@std@@AAEXXZ 00406ae0 f i implant.obj
 0001:00005b20       ?_Set_back@?$basic_filebuf@DU?$char_traits@D@std@@@std@@AAEXXZ 00406b20 f i implant.obj
 0001:00005b80       ?_Tidy@?$_Yarn@_W@std@@AAEXXZ 00406b80 f i implant.obj
 0001:00005b80       ?_Tidy@?$_Yarn@D@std@@AAEXXZ 00406b80 f i implant.obj
 0001:00005bb0       ?_Tidy@?$basic_string@DU?$char_traits@D@std@@V?$allocator@D@2@@std@@QAEX_NI@Z 00406bb0 f i implant.obj
 0001:00005c70       ?_Tidy@?$ctype@D@std@@IAEXXZ 00406c70 f i implant.obj
 0001:00005cd0       ?_Tidy@?$numpunct@D@std@@AAEXXZ 00406cd0 f i implant.obj
 0001:00005d10       ?_Tidy@?$vector@DV?$allocator@D@std@@@std@@IAEXXZ 00406d10 f i implant.obj
 0001:00005db0       ?_Unlock@?$basic_filebuf@DU?$char_traits@D@std@@@std@@UAEXXZ 00406db0 f i implant.obj
 0001:00005de0       ?_Lock@?$basic_streambuf@DU?$char_traits@D@std@@@std@@UAEXXZ 00406de0 f i implant.obj
 0001:00005de0       ??1?$_Immortalizer@V_Iostream_error_category@std@@@std@@QAE@XZ 00406de0 f i implant.obj
 0001:00005de0       ??1_Bxty@?$_String_val@U?$_Simple_types@D@std@@@std@@QAE@XZ 00406de0 f i implant.obj
 0001:00005de0       ?_Orphan_all@_Container_base0@std@@QAEXXZ 00406de0 f i implant.obj
 0001:00005de0       ?_Unlock@?$basic_streambuf@DU?$char_traits@D@std@@@std@@UAEXXZ 00406de0 f i implant.obj
 0001:00005df0       ?_Xlen@?$basic_string@DU?$char_traits@D@std@@V?$allocator@D@2@@std@@QBEXXZ 00406df0 f i implant.obj
 0001:00005e10       ?_Xlen@?$vector@DV?$allocator@D@std@@@std@@IBEXXZ 00406e10 f i implant.obj
 0001:00005e30       ?_Xran@?$basic_string@DU?$char_traits@D@std@@V?$allocator@D@2@@std@@QBEXXZ 00406e30 f i implant.obj
 0001:00005e50       ?address@?$_Wrap_alloc@V?$allocator@D@std@@@std@@QBEPADAAD@Z 00406e50 f i implant.obj
 0001:00005e70       ?allocate@?$_Wrap_alloc@V?$allocator@D@std@@@std@@QAEPADI@Z 00406e70 f i implant.obj
 0001:00005e90       ?allocate@?$allocator@D@std@@QAEPADI@Z 00406e90 f i implant.obj
 0001:00005eb0       ?always_noconv@codecvt_base@std@@QBE_NXZ 00406eb0 f i implant.obj
 0001:00005eb0       ?decimal_point@?$numpunct@D@std@@QBEDXZ 00406eb0 f i implant.obj
 0001:00005ed0       ?append@?$basic_string@DU?$char_traits@D@std@@V?$allocator@D@2@@std@@QAEAAV12@ABV12@@Z 00406ed0 f i implant.obj
 0001:00005f00       ?append@?$basic_string@DU?$char_traits@D@std@@V?$allocator@D@2@@std@@QAEAAV12@ABV12@II@Z 00406f00 f i implant.obj
 0001:00005fc0       ?append@?$basic_string@DU?$char_traits@D@std@@V?$allocator@D@2@@std@@QAEAAV12@ID@Z 00406fc0 f i implant.obj
 0001:00006050       ?append@?$basic_string@DU?$char_traits@D@std@@V?$allocator@D@2@@std@@QAEAAV12@PBD@Z 00407050 f i implant.obj
 0001:00006080       ?append@?$basic_string@DU?$char_traits@D@std@@V?$allocator@D@2@@std@@QAEAAV12@PBDI@Z 00407080 f i implant.obj
 0001:00006140       ?assign@?$basic_string@DU?$char_traits@D@std@@V?$allocator@D@2@@std@@QAEAAV12@$$QAV12@@Z 00407140 f i implant.obj
 0001:000061d0       ?assign@?$basic_string@DU?$char_traits@D@std@@V?$allocator@D@2@@std@@QAEAAV12@ABV12@@Z 004071d0 f i implant.obj
 0001:00006200       ?assign@?$basic_string@DU?$char_traits@D@std@@V?$allocator@D@2@@std@@QAEAAV12@ABV12@II@Z 00407200 f i implant.obj
 0001:000062a0       ?assign@?$basic_string@DU?$char_traits@D@std@@V?$allocator@D@2@@std@@QAEAAV12@ID@Z 004072a0 f i implant.obj
 0001:00006300       ?assign@?$basic_string@DU?$char_traits@D@std@@V?$allocator@D@2@@std@@QAEAAV12@PBD@Z 00407300 f i implant.obj
 0001:00006330       ?assign@?$basic_string@DU?$char_traits@D@std@@V?$allocator@D@2@@std@@QAEAAV12@PBDI@Z 00407330 f i implant.obj
 0001:000063b0       ?assign@?$char_traits@D@std@@SAPADPADID@Z 004073b0 f i implant.obj
 0001:000063d0       ?assign@?$char_traits@D@std@@SAXAADABD@Z 004073d0 f i implant.obj
 0001:000063e0       ?begin@?$basic_string@DU?$char_traits@D@std@@V?$allocator@D@2@@std@@QAE?AV?$_String_iterator@V?$_String_val@U?$_Simple_types@D@std@@@std@@@2@XZ 004073e0 f i implant.obj
 0001:00006430       ?begin@?$vector@DV?$allocator@D@std@@@std@@QAE?AV?$_Vector_iterator@V?$_Vector_val@U?$_Simple_types@D@std@@@std@@@2@XZ 00407430 f i implant.obj
 0001:00006460       ?c_str@?$_Yarn@D@std@@QBEPBDXZ 00407460 f i implant.obj
 0001:00006490       ?c_str@?$basic_string@DU?$char_traits@D@std@@V?$allocator@D@2@@std@@QBEPBDXZ 00407490 f i implant.obj
 0001:000064b0       ?c_str@locale@std@@QBEPBDXZ 004074b0 f i implant.obj
 0001:000064f0       ?category@error_condition@std@@QBEABVerror_category@2@XZ 004074f0 f i implant.obj
 0001:000064f0       ?category@error_code@std@@QBEABVerror_category@2@XZ 004074f0 f i implant.obj
 0001:00006510       ?clear@?$basic_ios@DU?$char_traits@D@std@@@std@@QAEXH_N@Z 00407510 f i implant.obj
 0001:00006550       ?clear@ios_base@std@@QAEXH@Z 00407550 f i implant.obj
 0001:00006570       ?clear@ios_base@std@@QAEXH_N@Z 00407570 f i implant.obj
 0001:00006660       ?close@?$basic_filebuf@DU?$char_traits@D@std@@@std@@QAEPAV12@XZ 00407660 f i implant.obj
 0001:000066d0       ?close@?$basic_ifstream@DU?$char_traits@D@std@@@std@@QAEXXZ 004076d0 f i implant.obj
 0001:00006700       ?copy@?$char_traits@D@std@@SAPADPADPBDI@Z 00407700 f i implant.obj
 0001:00006730       ?deallocate@?$_Wrap_alloc@V?$allocator@D@std@@@std@@QAEXPADI@Z 00407730 f i implant.obj
 0001:00006750       ?deallocate@?$allocator@D@std@@QAEXPADI@Z 00407750 f i implant.obj
 0001:00006770       ?default_error_condition@error_category@std@@UBE?AVerror_condition@2@H@Z 00407770 f i implant.obj
 0001:00006790       ?do_always_noconv@?$codecvt@DDU_Mbstatet@@@std@@MBE_NXZ 00407790 f i implant.obj
 0001:000067a0       ?do_always_noconv@codecvt_base@std@@MBE_NXZ 004077a0 f i implant.obj
 0001:000067b0       ?do_decimal_point@?$numpunct@D@std@@MBEDXZ 004077b0 f i implant.obj
 0001:000067d0       ?do_falsename@?$numpunct@D@std@@MBE?AV?$basic_string@DU?$char_traits@D@std@@V?$allocator@D@2@@2@XZ 004077d0 f i implant.obj
 0001:000067f0       ?do_grouping@?$numpunct@D@std@@MBE?AV?$basic_string@DU?$char_traits@D@std@@V?$allocator@D@2@@2@XZ 004077f0 f i implant.obj
 0001:00006810       ?do_out@?$codecvt@DDU_Mbstatet@@@std@@MBEHAAU_Mbstatet@@PBD1AAPBDPAD3AAPAD@Z 00407810 f i implant.obj
 0001:00006810       ?do_in@?$codecvt@DDU_Mbstatet@@@std@@MBEHAAU_Mbstatet@@PBD1AAPBDPAD3AAPAD@Z 00407810 f i implant.obj
 0001:00006890       ?do_length@?$codecvt@DDU_Mbstatet@@@std@@MBEHAAU_Mbstatet@@PBD1I@Z 00407890 f i implant.obj
 0001:000068c0       ?do_max_length@codecvt_base@std@@MBEHXZ 004078c0 f i implant.obj
 0001:000068c0       ?do_encoding@codecvt_base@std@@MBEHXZ 004078c0 f i implant.obj
 0001:000068d0       ?do_narrow@?$ctype@D@std@@MBEDDD@Z 004078d0 f i implant.obj
 0001:000068e0       ?do_narrow@?$ctype@D@std@@MBEPBDPBD0DPAD@Z 004078e0 f i implant.obj
 0001:00006910       ?do_put@?$num_put@DV?$ostreambuf_iterator@DU?$char_traits@D@std@@@std@@@std@@MBE?AV?$ostreambuf_iterator@DU?$char_traits@D@std@@@2@V32@AAVios_base@2@DJ@Z 00407910 f i implant.obj
 0001:00006990       ?do_put@?$num_put@DV?$ostreambuf_iterator@DU?$char_traits@D@std@@@std@@@std@@MBE?AV?$ostreambuf_iterator@DU?$char_traits@D@std@@@2@V32@AAVios_base@2@DK@Z 00407990 f i implant.obj
 0001:00006a10       ?do_put@?$num_put@DV?$ostreambuf_iterator@DU?$char_traits@D@std@@@std@@@std@@MBE?AV?$ostreambuf_iterator@DU?$char_traits@D@std@@@2@V32@AAVios_base@2@DN@Z 00407a10 f i implant.obj
 0001:00006bc0       ?do_put@?$num_put@DV?$ostreambuf_iterator@DU?$char_traits@D@std@@@std@@@std@@MBE?AV?$ostreambuf_iterator@DU?$char_traits@D@std@@@2@V32@AAVios_base@2@DO@Z 00407bc0 f i implant.obj
 0001:00006d70       ?do_put@?$num_put@DV?$ostreambuf_iterator@DU?$char_traits@D@std@@@std@@@std@@MBE?AV?$ostreambuf_iterator@DU?$char_traits@D@std@@@2@V32@AAVios_base@2@DPBX@Z 00407d70 f i implant.obj
 0001:00006de0       ?do_put@?$num_put@DV?$ostreambuf_iterator@DU?$char_traits@D@std@@@std@@@std@@MBE?AV?$ostreambuf_iterator@DU?$char_traits@D@std@@@2@V32@AAVios_base@2@D_J@Z 00407de0 f i implant.obj
 0001:00006e70       ?do_put@?$num_put@DV?$ostreambuf_iterator@DU?$char_traits@D@std@@@std@@@std@@MBE?AV?$ostreambuf_iterator@DU?$char_traits@D@std@@@2@V32@AAVios_base@2@D_K@Z 00407e70 f i implant.obj
 0001:00006f00       ?do_put@?$num_put@DV?$ostreambuf_iterator@DU?$char_traits@D@std@@@std@@@std@@MBE?AV?$ostreambuf_iterator@DU?$char_traits@D@std@@@2@V32@AAVios_base@2@D_N@Z 00407f00 f i implant.obj
 0001:000070e0       ?do_thousands_sep@?$numpunct@D@std@@MBEDXZ 004080e0 f i implant.obj
 0001:00007100       ?do_tolower@?$ctype@D@std@@MBEDD@Z 00408100 f i implant.obj
 0001:00007130       ?do_tolower@?$ctype@D@std@@MBEPBDPADPBD@Z 00408130 f i implant.obj
 0001:00007170       ?do_toupper@?$ctype@D@std@@MBEDD@Z 00408170 f i implant.obj
 0001:000071a0       ?do_toupper@?$ctype@D@std@@MBEPBDPADPBD@Z 004081a0 f i implant.obj
 0001:000071e0       ?do_truename@?$numpunct@D@std@@MBE?AV?$basic_string@DU?$char_traits@D@std@@V?$allocator@D@2@@2@XZ 004081e0 f i implant.obj
 0001:00007200       ?do_unshift@?$codecvt@DDU_Mbstatet@@@std@@MBEHAAU_Mbstatet@@PAD1AAPAD@Z 00408200 f i implant.obj
 0001:00007220       ?do_widen@?$ctype@D@std@@MBEDD@Z 00408220 f i implant.obj
 0001:00007230       ?do_widen@?$ctype@D@std@@MBEPBDPBD0PAD@Z 00408230 f i implant.obj
 0001:00007260       ?eback@?$basic_streambuf@DU?$char_traits@D@std@@@std@@IBEPADXZ 00408260 f i implant.obj
 0001:00007280       ?egptr@?$basic_streambuf@DU?$char_traits@D@std@@@std@@IBEPADXZ 00408280 f i implant.obj
 0001:000072a0       ?empty@?$basic_string@DU?$char_traits@D@std@@V?$allocator@D@2@@std@@QBE_NXZ 004082a0 f i implant.obj
 0001:000072d0       ?end@?$vector@DV?$allocator@D@std@@@std@@QAE?AV?$_Vector_iterator@V?$_Vector_val@U?$_Simple_types@D@std@@@std@@@2@XZ 004082d0 f i implant.obj
 0001:00007300       ?eof@?$char_traits@D@std@@SAHXZ 00408300 f i implant.obj
 0001:00007310       ?epptr@?$basic_streambuf@DU?$char_traits@D@std@@@std@@IBEPADXZ 00408310 f i implant.obj
 0001:00007330       ?eq_int_type@?$char_traits@D@std@@SA_NABH0@Z 00408330 f i implant.obj
 0001:00007360       ?equivalent@error_category@std@@UBE_NABVerror_code@2@H@Z 00408360 f i implant.obj
 0001:000073b0       ?equivalent@error_category@std@@UBE_NHABVerror_condition@2@@Z 004083b0 f i implant.obj
 0001:000073f0       ?erase@?$basic_string@DU?$char_traits@D@std@@V?$allocator@D@2@@std@@QAEAAV12@I@Z 004083f0 f i implant.obj
 0001:00007420       ?erase@?$basic_string@DU?$char_traits@D@std@@V?$allocator@D@2@@std@@QAEAAV12@II@Z 00408420 f i implant.obj
 0001:000074b0       ?fail@ios_base@std@@QBE_NXZ 004084b0 f i implant.obj
 0001:000074e0       ?failed@?$ostreambuf_iterator@DU?$char_traits@D@std@@@std@@QBE_NXZ 004084e0 f i implant.obj
 0001:000074f0       ?falsename@?$numpunct@D@std@@QBE?AV?$basic_string@DU?$char_traits@D@std@@V?$allocator@D@2@@2@XZ 004084f0 f i implant.obj
 0001:00007520       ?fill@?$basic_ios@DU?$char_traits@D@std@@@std@@QBEDXZ 00408520 f i implant.obj
 0001:00007540       ?flags@ios_base@std@@QBEHXZ 00408540 f i implant.obj
 0001:00007560       ?flush@?$basic_ostream@DU?$char_traits@D@std@@@std@@QAEAAV12@XZ 00408560 f i implant.obj
 0001:000075e0       ?gbump@?$basic_streambuf@DU?$char_traits@D@std@@@std@@IAEXH@Z 004085e0 f i implant.obj
 0001:00007620       ?get_allocator@?$basic_string@DU?$char_traits@D@std@@V?$allocator@D@2@@std@@QBE?AV?$allocator@D@2@XZ 00408620 f i implant.obj
 0001:00007650       ?getloc@?$basic_streambuf@DU?$char_traits@D@std@@@std@@QBE?AVlocale@2@XZ 00408650 f i implant.obj
 0001:00007670       ?getloc@ios_base@std@@QBE?AVlocale@2@XZ 00408670 f i implant.obj
 0001:00007690       ?good@ios_base@std@@QBE_NXZ 00408690 f i implant.obj
 0001:000076c0       ?gptr@?$basic_streambuf@DU?$char_traits@D@std@@@std@@IBEPADXZ 004086c0 f i implant.obj
 0001:000076e0       ?grouping@?$numpunct@D@std@@QBE?AV?$basic_string@DU?$char_traits@D@std@@V?$allocator@D@2@@2@XZ 004086e0 f i implant.obj
 0001:00007710       ?imbue@?$basic_filebuf@DU?$char_traits@D@std@@@std@@MAEXABVlocale@2@@Z 00408710 f i implant.obj
 0001:00007740       ?in@?$codecvt@DDU_Mbstatet@@@std@@QBEHAAU_Mbstatet@@PBD1AAPBDPAD3AAPAD@Z 00408740 f i implant.obj
 0001:00007780       ?init@?$basic_ios@DU?$char_traits@D@std@@@std@@IAEXPAV?$basic_streambuf@DU?$char_traits@D@std@@@2@_N@Z 00408780 f i implant.obj
 0001:000077f0       ?insert@?$basic_string@DU?$char_traits@D@std@@V?$allocator@D@2@@std@@QAEAAV12@IID@Z 004087f0 f i implant.obj
 0001:000078b0       ?iostream_category@std@@YAABVerror_category@1@XZ 004088b0 f i implant.obj
 0001:000078c0       ?is@?$ctype@D@std@@QBE_NFD@Z 004088c0 f i implant.obj
 0001:00007900       ?length@?$char_traits@D@std@@SAIPBD@Z 00408900 f i implant.obj
 0001:00007930       ?make_error_code@std@@YA?AVerror_code@1@W4io_errc@1@@Z 00408930 f i implant.obj
 0001:00007950       ?max_size@?$_Wrap_alloc@V?$allocator@D@std@@@std@@QBEIU_Nil@2@@Z 00408950 f i implant.obj
 0001:00007970       ?max_size@?$allocator@D@std@@QBEIXZ 00408970 f i implant.obj
 0001:00007980       ?max_size@?$allocator_traits@V?$allocator@D@std@@@std@@SAIABV?$allocator@D@2@@Z 00408980 f i implant.obj
 0001:00007990       ?max_size@?$basic_string@DU?$char_traits@D@std@@V?$allocator@D@2@@std@@QBEIXZ 00408990 f i implant.obj
 0001:000079d0       ?max_size@?$vector@DV?$allocator@D@std@@@std@@QBEIXZ 004089d0 f i implant.obj
 0001:00007a00       ?message@_Generic_error_category@std@@UBE?AV?$basic_string@DU?$char_traits@D@std@@V?$allocator@D@2@@2@H@Z 00408a00 f i implant.obj
 0001:00007a30       ?message@_Iostream_error_category@std@@UBE?AV?$basic_string@DU?$char_traits@D@std@@V?$allocator@D@2@@2@H@Z 00408a30 f i implant.obj
 0001:00007a70       ?message@error_code@std@@QBE?AV?$basic_string@DU?$char_traits@D@std@@V?$allocator@D@2@@2@XZ 00408a70 f i implant.obj
 0001:00007ab0       ?move@?$char_traits@D@std@@SAPADPADPBDI@Z 00408ab0 f i implant.obj
 0001:00007ae0       ?name@_Generic_error_category@std@@UBEPBDXZ 00408ae0 f i implant.obj
 0001:00007af0       ?name@_Iostream_error_category@std@@UBEPBDXZ 00408af0 f i implant.obj
 0001:00007b00       ?not_eof@?$char_traits@D@std@@SAHABH@Z 00408b00 f i implant.obj
 0001:00007b50       ?open@?$basic_filebuf@DU?$char_traits@D@std@@@std@@QAEPAV12@PBDHH@Z 00408b50 f i implant.obj
 0001:00007bc0       ?out@?$codecvt@DDU_Mbstatet@@@std@@QBEHAAU_Mbstatet@@PBD1AAPBDPAD3AAPAD@Z 00408bc0 f i implant.obj
 0001:00007c00       ?overflow@?$basic_filebuf@DU?$char_traits@D@std@@@std@@MAEHH@Z 00408c00 f i implant.obj
 0001:00007ec0       ?pbackfail@?$basic_filebuf@DU?$char_traits@D@std@@@std@@MAEHH@Z 00408ec0 f i implant.obj
 0001:00008010       ?pbackfail@?$basic_streambuf@DU?$char_traits@D@std@@@std@@MAEHH@Z 00409010 f i implant.obj
 0001:00008010       ?overflow@?$basic_streambuf@DU?$char_traits@D@std@@@std@@MAEHH@Z 00409010 f i implant.obj
 0001:00008030       ?pbump@?$basic_streambuf@DU?$char_traits@D@std@@@std@@IAEXH@Z 00409030 f i implant.obj
 0001:00008070       ?pointer_to@?$pointer_traits@PAD@std@@SAPADAAD@Z 00409070 f i implant.obj
 0001:00008090       ?pptr@?$basic_streambuf@DU?$char_traits@D@std@@@std@@IBEPADXZ 00409090 f i implant.obj
 0001:000080b0       ?precision@ios_base@std@@QBE_JXZ 004090b0 f i implant.obj
 0001:000080d0       ?pubseekoff@?$basic_streambuf@DU?$char_traits@D@std@@@std@@QAE?AV?$fpos@U_Mbstatet@@@2@_JHH@Z 004090d0 f i implant.obj
 0001:00008110       ?pubsync@?$basic_streambuf@DU?$char_traits@D@std@@@std@@QAEHXZ 00409110 f i implant.obj
 0001:00008130       ?put@?$basic_ostream@DU?$char_traits@D@std@@@std@@QAEAAV12@D@Z 00409130 f i implant.obj
 0001:00008250       ?put@?$num_put@DV?$ostreambuf_iterator@DU?$char_traits@D@std@@@std@@@std@@QBE?AV?$ostreambuf_iterator@DU?$char_traits@D@std@@@2@V32@AAVios_base@2@DK@Z 00409250 f i implant.obj
 0001:00008290       ?rdbuf@?$basic_ios@DU?$char_traits@D@std@@@std@@QBEPAV?$basic_streambuf@DU?$char_traits@D@std@@@2@XZ 00409290 f i implant.obj
 0001:000082b0       ?rdstate@ios_base@std@@QBEHXZ 004092b0 f i implant.obj
 0001:000082d0       ?read@?$basic_istream@DU?$char_traits@D@std@@@std@@QAEAAV12@PAD_J@Z 004092d0 f i implant.obj
 0001:00008420       ?resize@?$basic_string@DU?$char_traits@D@std@@V?$allocator@D@2@@std@@QAEXI@Z 00409420 f i implant.obj
 0001:00008440       ?resize@?$basic_string@DU?$char_traits@D@std@@V?$allocator@D@2@@std@@QAEXID@Z 00409440 f i implant.obj
 0001:00008490       ?sbumpc@?$basic_streambuf@DU?$char_traits@D@std@@@std@@QAEHXZ 00409490 f i implant.obj
 0001:000084f0       ?seekg@?$basic_istream@DU?$char_traits@D@std@@@std@@QAEAAV12@_JH@Z 004094f0 f i implant.obj
 0001:000085d0       ?seekoff@?$basic_filebuf@DU?$char_traits@D@std@@@std@@MAE?AV?$fpos@U_Mbstatet@@@2@_JHH@Z 004095d0 f i implant.obj
 0001:000086b0       ?seekoff@?$basic_streambuf@DU?$char_traits@D@std@@@std@@MAE?AV?$fpos@U_Mbstatet@@@2@_JHH@Z 004096b0 f i implant.obj
 0001:000086e0       ?seekpos@?$basic_filebuf@DU?$char_traits@D@std@@@std@@MAE?AV?$fpos@U_Mbstatet@@@2@V32@H@Z 004096e0 f i implant.obj
 0001:000087e0       ?seekpos@?$basic_streambuf@DU?$char_traits@D@std@@@std@@MAE?AV?$fpos@U_Mbstatet@@@2@V32@H@Z 004097e0 f i implant.obj
 0001:00008810       ?seekpos@?$fpos@U_Mbstatet@@@std@@QBE_JXZ 00409810 f i implant.obj
 0001:00008830       ?select_on_container_copy_construction@?$_Wrap_alloc@V?$allocator@D@std@@@std@@QBE?AU12@U_Nil@2@@Z 00409830 f i implant.obj
 0001:00008860       ?select_on_container_copy_construction@?$allocator_traits@V?$allocator@D@std@@@std@@SA?AV?$allocator@D@2@ABV32@@Z 00409860 f i implant.obj
 0001:00008880       ?setbuf@?$basic_filebuf@DU?$char_traits@D@std@@@std@@MAEPAV?$basic_streambuf@DU?$char_traits@D@std@@@2@PAD_J@Z 00409880 f i implant.obj
 0001:000088f0       ?setbuf@?$basic_streambuf@DU?$char_traits@D@std@@@std@@MAEPAV12@PAD_J@Z 004098f0 f i implant.obj
 0001:00008900       ?setg@?$basic_streambuf@DU?$char_traits@D@std@@@std@@IAEXPAD00@Z 00409900 f i implant.obj
 0001:00008940       ?setp@?$basic_streambuf@DU?$char_traits@D@std@@@std@@IAEXPAD0@Z 00409940 f i implant.obj
 0001:00008980       ?setstate@?$basic_ios@DU?$char_traits@D@std@@@std@@QAEXH_N@Z 00409980 f i implant.obj
 0001:000089b0       ?sgetc@?$basic_streambuf@DU?$char_traits@D@std@@@std@@QAEHXZ 004099b0 f i implant.obj
 0001:00008a10       ?sgetn@?$basic_streambuf@DU?$char_traits@D@std@@@std@@QAE_JPAD_J@Z 00409a10 f i implant.obj
 0001:00008a40       ?showmanyc@?$basic_streambuf@DU?$char_traits@D@std@@@std@@MAE_JXZ 00409a40 f i implant.obj
 0001:00008a50       ?size@?$basic_string@DU?$char_traits@D@std@@V?$allocator@D@2@@std@@QBEIXZ 00409a50 f i implant.obj
 0001:00008a70       ?snextc@?$basic_streambuf@DU?$char_traits@D@std@@@std@@QAEHXZ 00409a70 f i implant.obj
 0001:00008b00       ?sputc@?$basic_streambuf@DU?$char_traits@D@std@@@std@@QAEHD@Z 00409b00 f i implant.obj
 0001:00008b70       ?sputn@?$basic_streambuf@DU?$char_traits@D@std@@@std@@QAE_JPBD_J@Z 00409b70 f i implant.obj
 0001:00008ba0       ?state@?$fpos@U_Mbstatet@@@std@@QBE?AU_Mbstatet@@XZ 00409ba0 f i implant.obj
 0001:00008bd0       ?strstr@@YAPADQADQBD@Z     00409bd0 f i implant.obj
 0001:00008bf0       ?sync@?$basic_filebuf@DU?$char_traits@D@std@@@std@@MAEHXZ 00409bf0 f i implant.obj
 0001:00008c70       ?sync@?$basic_streambuf@DU?$char_traits@D@std@@@std@@MAEHXZ 00409c70 f i implant.obj
 0001:00008c80       ?tellg@?$basic_istream@DU?$char_traits@D@std@@@std@@QAE?AV?$fpos@U_Mbstatet@@@2@XZ 00409c80 f i implant.obj
 0001:00008d20       ?thousands_sep@?$numpunct@D@std@@QBEDXZ 00409d20 f i implant.obj
 0001:00008d40       ?tie@?$basic_ios@DU?$char_traits@D@std@@@std@@QBEPAV?$basic_ostream@DU?$char_traits@D@std@@@2@XZ 00409d40 f i implant.obj
 0001:00008d60       ?to_char_type@?$char_traits@D@std@@SADABH@Z 00409d60 f i implant.obj
 0001:00008d70       ?to_int_type@?$char_traits@D@std@@SAHABD@Z 00409d70 f i implant.obj
 0001:00008d80       ?to_string@std@@YA?AV?$basic_string@DU?$char_traits@D@std@@V?$allocator@D@2@@1@K@Z 00409d80 f i implant.obj
 0001:00008da0       ?truename@?$numpunct@D@std@@QBE?AV?$basic_string@DU?$char_traits@D@std@@V?$allocator@D@2@@2@XZ 00409da0 f i implant.obj
 0001:00008dd0       ?uflow@?$basic_filebuf@DU?$char_traits@D@std@@@std@@MAEHXZ 00409dd0 f i implant.obj
 0001:00009070       ?uflow@?$basic_streambuf@DU?$char_traits@D@std@@@std@@MAEHXZ 0040a070 f i implant.obj
 0001:000090d0       ?underflow@?$basic_filebuf@DU?$char_traits@D@std@@@std@@MAEHXZ 0040a0d0 f i implant.obj
 0001:00009160       ?underflow@?$basic_streambuf@DU?$char_traits@D@std@@@std@@MAEHXZ 0040a160 f i implant.obj
 0001:00009170       ?unshift@?$codecvt@DDU_Mbstatet@@@std@@QBEHAAU_Mbstatet@@PAD1AAPAD@Z 0040a170 f i implant.obj
 0001:000091a0       ?what@exception@std@@UBEPBDXZ 0040a1a0 f i implant.obj
 0001:000091d0       ?widen@?$basic_ios@DU?$char_traits@D@std@@@std@@QBEDD@Z 0040a1d0 f i implant.obj
 0001:00009210       ?widen@?$ctype@D@std@@QBEDD@Z 0040a210 f i implant.obj
 0001:00009230       ?widen@?$ctype@D@std@@QBEPBDPBD0PAD@Z 0040a230 f i implant.obj
 0001:00009260       ?width@ios_base@std@@QAE_J_J@Z 0040a260 f i implant.obj
 0001:000092a0       ?width@ios_base@std@@QBE_JXZ 0040a2a0 f i implant.obj
 0001:000092c0       ?xsgetn@?$basic_streambuf@DU?$char_traits@D@std@@@std@@MAE_JPAD_J@Z 0040a2c0 f i implant.obj
 0001:00009400       ?xsputn@?$basic_streambuf@DU?$char_traits@D@std@@@std@@MAE_JPBD_J@Z 0040a400 f i implant.obj
 0001:00009540       ___local_stdio_printf_options 0040a540 f i implant.obj
 0001:00009550       __vsnprintf_l              0040a550 f i implant.obj
 0001:000095a0       __vsprintf_l               0040a5a0 f i implant.obj
 0001:000095c0       __vsprintf_s_l             0040a5c0 f i implant.obj
 0001:00009610       _fabsl                     0040a610 f i implant.obj
 0001:00009630       _frexpl                    0040a630 f i implant.obj
 0001:00009650       _sprintf                   0040a650 f i implant.obj
 0001:00009690       _sprintf_s                 0040a690 f i implant.obj
 0001:000096cc       ??0_Init_locks@std@@QAE@XZ 0040a6cc f   libcpmt:xlock.obj
 0001:000096f9       ??0_Lockit@std@@QAE@H@Z    0040a6f9 f   libcpmt:xlock.obj
 0001:0000972a       ??1_Init_locks@std@@QAE@XZ 0040a72a f   libcpmt:xlock.obj
 0001:00009751       ??1_Lockit@std@@QAE@XZ     0040a751 f   libcpmt:xlock.obj
 0001:00009770       ?uncaught_exception@std@@YA_NXZ 0040a770 f   libcpmt:uncaught.obj
 0001:00009775       ??0bad_alloc@std@@QAE@ABV01@@Z 0040a775 f i libcpmt:xthrow.obj
 0001:00009790       ??0bad_alloc@std@@QAE@XZ   0040a790 f i libcpmt:xthrow.obj
 0001:000097a8       ??0length_error@std@@QAE@ABV01@@Z 0040a7a8 f i libcpmt:xthrow.obj
 0001:000097c3       ??0length_error@std@@QAE@PBD@Z 0040a7c3 f i libcpmt:xthrow.obj
 0001:000097e4       ??0logic_error@std@@QAE@ABV01@@Z 0040a7e4 f i libcpmt:xthrow.obj
 0001:000097ff       ??0out_of_range@std@@QAE@ABV01@@Z 0040a7ff f i libcpmt:xthrow.obj
 0001:0000981a       ??0out_of_range@std@@QAE@PBD@Z 0040a81a f i libcpmt:xthrow.obj
 0001:0000983b       ??1bad_alloc@std@@UAE@XZ   0040a83b f i libcpmt:xthrow.obj
 0001:0000983b       ??1bad_exception@std@@UAE@XZ 0040a83b f i libvcruntime:frame.obj
 0001:0000983b       ??1length_error@std@@UAE@XZ 0040a83b f i libcpmt:xthrow.obj
 0001:0000983b       ??1out_of_range@std@@UAE@XZ 0040a83b f i libcpmt:xthrow.obj
 0001:0000983b       ??1bad_array_new_length@std@@UAE@XZ 0040a83b f i LIBCMT:throw_bad_alloc.obj
 0001:0000984c       ??_Gbad_alloc@std@@UAEPAXI@Z 0040a84c f i libcpmt:xthrow.obj
 0001:0000984c       ??_Glogic_error@std@@UAEPAXI@Z 0040a84c f i libcpmt:xthrow.obj
 0001:0000984c       ??_Gbad_array_new_length@std@@UAEPAXI@Z 0040a84c f i LIBCMT:throw_bad_alloc.obj
 0001:0000984c       ??_Gout_of_range@std@@UAEPAXI@Z 0040a84c f i libcpmt:xthrow.obj
 0001:0000984c       ??_Gbad_exception@std@@UAEPAXI@Z 0040a84c f i libvcruntime:frame.obj
 0001:0000984c       ??_Glength_error@std@@UAEPAXI@Z 0040a84c f i libcpmt:xthrow.obj
 0001:0000984c       ??_Elogic_error@std@@UAEPAXI@Z 0040a84c f i libcpmt:xthrow.obj
 0001:0000984c       ??_Ebad_alloc@std@@UAEPAXI@Z 0040a84c f i libcpmt:xthrow.obj
 0001:0000984c       ??_Elength_error@std@@UAEPAXI@Z 0040a84c f i libcpmt:xthrow.obj
 0001:0000984c       ??_Ebad_exception@std@@UAEPAXI@Z 0040a84c f i libvcruntime:frame.obj
 0001:0000984c       ??_Ebad_array_new_length@std@@UAEPAXI@Z 0040a84c f i LIBCMT:throw_bad_alloc.obj
 0001:0000984c       ??_Eout_of_range@std@@UAEPAXI@Z 0040a84c f i libcpmt:xthrow.obj
 0001:00009879       ?_Xlength_error@std@@YAXPBD@Z 0040a879 f   libcpmt:xthrow.obj
 0001:00009899       ?_Xout_of_range@std@@YAXPBD@Z 0040a899 f   libcpmt:xthrow.obj
 0001:000098b9       __Getctype                 0040a8b9 f   libcpmt:_tolower.obj
 0001:00009924       __Tolower                  0040a924 f   libcpmt:_tolower.obj
 0001:00009a1e       __Getcvt                   0040aa1e f   libcpmt:xwctomb.obj
 0001:00009a8b       __Toupper                  0040aa8b f   libcpmt:_toupper.obj
 0001:00009b85       ??0_Locimp@locale@std@@AAE@_N@Z 0040ab85 f i libcpmt:locale0.obj
 0001:00009bc8       ??1_Fac_node@std@@QAE@XZ   0040abc8 f i libcpmt:locale0.obj
 0001:00009c27       ??1_Fac_tidy_reg_t@std@@QAE@XZ 0040ac27 f i libcpmt:locale0.obj
 0001:00009c4e       ??1_Locimp@locale@std@@MAE@XZ 0040ac4e f i libcpmt:locale0.obj
 0001:00009ca9       ??4?$_Yarn@D@std@@QAEAAV01@PBD@Z 0040aca9 f i libcpmt:locale0.obj
 0001:00009cfd       ??_E_Locimp@locale@std@@MAEPAXI@Z 0040acfd f i libcpmt:locale0.obj
 0001:00009cfd       ??_G_Locimp@locale@std@@MAEPAXI@Z 0040acfd f i libcpmt:locale0.obj
 0001:00009d1f       ?_Facet_Register@std@@YAXPAV_Facet_base@1@@Z 0040ad1f f   libcpmt:locale0.obj
 0001:00009d4d       ?_Getgloballocale@locale@std@@CAPAV_Locimp@12@XZ 0040ad4d f   libcpmt:locale0.obj
 0001:00009d53       ?_Init@locale@std@@CAPAV_Locimp@12@_N@Z 0040ad53 f   libcpmt:locale0.obj
 0001:00009de1       ?_Locimp_dtor@_Locimp@locale@std@@CAXPAV123@@Z 0040ade1 f   libcpmt:locale0.obj
 0001:00009e56       ?_Locinfo_ctor@_Locinfo@std@@SAXPAV12@PBD@Z 0040ae56 f   libcpmt:locale0.obj
 0001:00009ea1       ?_Locinfo_dtor@_Locinfo@std@@SAXPAV12@@Z 0040aea1 f   libcpmt:locale0.obj
 0001:00009ec3       ?_New_Locimp@_Locimp@locale@std@@CAPAV123@_N@Z 0040aec3 f   libcpmt:locale0.obj
 0001:00009ee8       ?_Setgloballocale@locale@std@@CAXPAX@Z 0040aee8 f   libcpmt:locale0.obj
 0001:00009f10       __Deletegloballocale       0040af10 f   libcpmt:locale0.obj
 0001:00009f75       ?_Syserror_map@std@@YAPBDH@Z 0040af75 f   libcpmt:syserror.obj
 0001:00009f9a       ?_Addstd@ios_base@std@@SAXPAV12@@Z 0040af9a f   libcpmt:ios.obj
 0001:00009feb       ?_Callfns@ios_base@std@@AAEXW4event@12@@Z 0040afeb f i libcpmt:ios.obj
 0001:0000a01d       ?_Ios_base_dtor@ios_base@std@@CAXPAV12@@Z 0040b01d f   libcpmt:ios.obj
 0001:0000a05d       ?_Tidy@ios_base@std@@AAEXXZ 0040b05d f i libcpmt:ios.obj
 0001:0000a0a5       ??$_Xfiopen@D@std@@YAPAU_iobuf@@PBDHH@Z 0040b0a5 f i libcpmt:fiopen.obj
 0001:0000a147       ?_Fiopen@std@@YAPAU_iobuf@@PBDHH@Z 0040b147 f   libcpmt:fiopen.obj
 0001:0000a150       ?_Xfsopen@std@@YAPAU_iobuf@@PBDHH@Z 0040b150 f   libcpmt:fiopen.obj
 0001:0000a16d       ??0?$basic_ostream@DU?$char_traits@D@std@@@std@@QAE@PAV?$basic_streambuf@DU?$char_traits@D@std@@@1@_N@Z 0040b16d f i libcpmt:cout.obj
 0001:0000a1d4       ??0_Init_cout@std@@QAE@XZ  0040b1d4 f i libcpmt:cout.obj
 0001:0000a22d       ??_D?$basic_ostream@DU?$char_traits@D@std@@@std@@QAEXXZ 0040b22d f i libcpmt:cout.obj
 0001:0000a28d       ??_E?$basic_ostream@DU?$char_traits@D@std@@@std@@$4PPPPPPPM@A@AEPAXI@Z 0040b28d f i libcpmt:cout.obj
 0001:0000a295       ??_G?$basic_ostream@DU?$char_traits@D@std@@@std@@UAEPAXI@Z 0040b295 f i libcpmt:cout.obj
 0001:0000a295       ??_E?$basic_ostream@DU?$char_traits@D@std@@@std@@UAEPAXI@Z 0040b295 f i libcpmt:cout.obj
 0001:0000a2ba       ??0_Init_cerr@std@@QAE@XZ  0040b2ba f i libcpmt:cerr.obj
 0001:0000a2ea       __Mtxdst                   0040b2ea f   libcpmt:xmtx.obj
 0001:0000a2f8       __Mtxinit                  0040b2f8 f   libcpmt:xmtx.obj
 0001:0000a30f       __Mtxlock                  0040b30f f   libcpmt:xmtx.obj
 0001:0000a31d       __Mtxunlock                0040b31d f   libcpmt:xmtx.obj
 0001:0000a32b       ___crtLCMapStringA         0040b32b f   libcpmt:StlLCMapStringA.obj
 0001:0000a52e       __freea_crt                0040b52e f i libcpmt:StlLCMapStringA.obj
 0001:0000a54c       ??1_Init_atexit@@QAE@XZ    0040b54c f i libcpmt:iosptrs.obj
 0001:0000a5b0       ?_Atexit@@YAXP6AXXZ@Z      0040b5b0 f   libcpmt:iosptrs.obj
 0001:0000a988       ___crtInitializeCriticalSectionEx 0040b988 f   libcpmt:winapisupp.obj
 0001:0000a9c0       _GetTableIndexFromLocaleName 0040b9c0 f   libcpmt:winapinls.obj
 0001:0000aa0e       ___crtDownlevelLocaleNameToLCID 0040ba0e f   libcpmt:winapinls.obj
 0001:0000aa38       ___crtLCMapStringEx        0040ba38 f   libcpmt:winapinls.obj
 0001:0000aa8e       ___wcsnicmp_ascii          0040ba8e f   libcpmt:winapinls.obj
 0001:0000ab02       _GetAdaptersInfo@8         0040bb02 f   iphlpapi:IPHLPAPI.DLL
 0001:0000ab08       ??2@YAPAXI@Z               0040bb08 f   LIBCMT:new_scalar.obj
 0001:0000ab3b       ??3@YAXPAX@Z               0040bb3b f   LIBCMT:delete_scalar.obj
 0001:0000ab40       ??3@YAXPAXI@Z              0040bb40 f   LIBCMT:delete_scalar_size.obj
 0001:0000ab4e       ??_V@YAXPAX@Z              0040bb4e f   LIBCMT:delete_array.obj
 0001:0000ab97       ___scrt_acquire_startup_lock 0040bb97 f   LIBCMT:utility.obj
 0001:0000abcc       ___scrt_initialize_crt     0040bbcc f   LIBCMT:utility.obj
 0001:0000ac05       ___scrt_initialize_onexit_tables 0040bc05 f   LIBCMT:utility.obj
 0001:0000ac9c       ___scrt_is_nonwritable_in_current_image 0040bc9c f   LIBCMT:utility.obj
 0001:0000ad26       ___scrt_release_startup_lock 0040bd26 f   LIBCMT:utility.obj
 0001:0000ad43       ___scrt_uninitialize_crt   0040bd43 f   LIBCMT:utility.obj
 0001:0000ad6b       __onexit                   0040bd6b f   LIBCMT:utility.obj
 0001:0000ada6       _atexit                    0040bda6 f   LIBCMT:utility.obj
 0001:0000adbb       ___raise_securityfailure   0040bdbb f   LIBCMT:gs_report.obj
 0001:0000ade3       ___report_gsfailure        0040bde3 f   LIBCMT:gs_report.obj
 0001:0000aede       ___report_rangecheckfailure 0040bede f   LIBCMT:gs_report.obj
 0001:0000aeea       ___report_securityfailure  0040beea f   LIBCMT:gs_report.obj
 0001:0000b096       __Init_thread_footer       0040c096 f   LIBCMT:thread_safe_statics.obj
 0001:0000b0d5       __Init_thread_header       0040c0d5 f   LIBCMT:thread_safe_statics.obj
 0001:0000b11b       __Init_thread_lock         0040c11b f   LIBCMT:thread_safe_statics.obj
 0001:0000b127       __Init_thread_notify       0040c127 f   LIBCMT:thread_safe_statics.obj
 0001:0000b168       __Init_thread_unlock       0040c168 f   LIBCMT:thread_safe_statics.obj
 0001:0000b174       __Init_thread_wait         0040c174 f   LIBCMT:thread_safe_statics.obj
 0001:0000b1d9       @__security_check_cookie@4 0040c1d9 f   LIBCMT:_secchk_.obj
 0001:0000b1ea       ??_Etype_info@@UAEPAXI@Z   0040c1ea f i LIBCMT:std_type_info_static.obj
 0001:0000b1ea       ??_Gtype_info@@UAEPAXI@Z   0040c1ea f i LIBCMT:std_type_info_static.obj
 0001:0000b433       _wWinMainCRTStartup        0040c433 f   LIBCMT:exe_wwinmain.obj
 0001:0000b43d       @_guard_check_icall@4      0040c43d f i LIBCMT:checkcfg.obj
 0001:0000b443       __EH_epilog3               0040c443 f   LIBCMT:ehprolg3.obj
 0001:0000b458       __EH_prolog3               0040c458 f   LIBCMT:ehprolg3.obj
 0001:0000b48c       __EH_prolog3_catch         0040c48c f   LIBCMT:ehprolg3.obj
 0001:0000b4d0       __alloca_probe_16          0040c4d0 f   LIBCMT:alloca16.obj
 0001:0000b4e6       __alloca_probe_8           0040c4e6     LIBCMT:alloca16.obj
 0001:0000b500       __allmul                   0040c500 f   LIBCMT:llmul.obj
 0001:0000b540       __aulldiv                  0040c540 f   LIBCMT:ulldiv.obj
 0001:0000b5a8       ??0bad_array_new_length@std@@QAE@ABV01@@Z 0040c5a8 f i LIBCMT:throw_bad_alloc.obj
 0001:0000b5c3       ??0bad_array_new_length@std@@QAE@XZ 0040c5c3 f i LIBCMT:throw_bad_alloc.obj
 0001:0000b5db       ?_Xbad_alloc@std@@YAXXZ    0040c5db f   libcpmt:xthrow.obj
 0001:0000b5db       ?__scrt_throw_std_bad_alloc@@YAXXZ 0040c5db f   LIBCMT:throw_bad_alloc.obj
 0001:0000b5f8       ?__scrt_throw_std_bad_array_new_length@@YAXXZ 0040c5f8 f   LIBCMT:throw_bad_alloc.obj
 0001:0000b615       ___isa_available_init      0040c615 f   LIBCMT:_cpu_disp_.obj
 0001:0000b7af       __get_startup_argv_mode    0040c7af f   LIBCMT:argv_mode.obj
 0001:0000b7b3       ___scrt_is_ucrt_dll_in_use 0040c7b3 f   LIBCMT:ucrt_detection.obj
 0001:0000b7bf       ___scrt_fastfail           0040c7bf f   LIBCMT:utility_desktop.obj
 0001:0000b8da       ___scrt_get_show_window_mode 0040c8da f   LIBCMT:utility_desktop.obj
 0001:0000b90d       __get_startup_thread_locale_mode 0040c90d f   LIBCMT:thread_locale.obj
 0001:0000b90d       __get_startup_new_mode     0040c90d f   LIBCMT:new_mode.obj
 0001:0000b90d       __matherr                  0040c90d f   LIBCMT:matherr.obj
 0001:0000b90d       __get_startup_commit_mode  0040c90d f   LIBCMT:commit_mode.obj
 0001:0000b90d       ___scrt_initialize_winrt   0040c90d f   LIBCMT:utility_desktop.obj
 0001:0000b910       ___scrt_is_managed_app     0040c910 f   LIBCMT:utility_desktop.obj
 0001:0000b954       ___scrt_set_unhandled_exception_filter 0040c954 f   LIBCMT:utility_desktop.obj
 0001:0000b960       ___scrt_unhandled_exception_filter@4 0040c960 f   LIBCMT:utility_desktop.obj
 0001:0000b9a1       __crt_debugger_hook        0040c9a1 f   LIBCMT:utility_desktop.obj
 0001:0000b9b0       __SEH_prolog4              0040c9b0 f   LIBCMT:_sehprolg4_.obj
 0001:0000b9f6       __SEH_epilog4              0040c9f6 f   LIBCMT:_sehprolg4_.obj
 0001:0000ba0b       ___security_init_cookie    0040ca0b f   LIBCMT:gs_support.obj
 0001:0000baa7       __get_startup_file_mode    0040caa7 f   LIBCMT:file_mode.obj
 0001:0000baad       ?__scrt_initialize_type_info@@YAXXZ 0040caad f   LIBCMT:tncleanup.obj
 0001:0000bab9       __initialize_default_precision 0040cab9 f   LIBCMT:default_precision.obj
 0001:0000bada       ___except_validate_jump_buffer 0040cada f   libvcruntime:jbcxrval.obj
 0001:0000bada       __initialize_invalid_parameter_handler 0040cada f   LIBCMT:invalid_parameter_handler.obj
 0001:0000bada       __initialize_denormal_control 0040cada f   LIBCMT:denormal_control.obj
 0001:0000bada       @_guard_check_icall_nop@4  0040cada f   LIBCMT:guard_support.obj
 0001:0000bada       ___except_validate_context_record 0040cada f   libvcruntime:jbcxrval.obj
 0001:0000badb       ___local_stdio_scanf_options 0040cadb f i LIBCMT:default_local_stdio_options.obj
 0001:0000bae1       ___scrt_initialize_default_local_stdio_options 0040cae1 f   LIBCMT:default_local_stdio_options.obj
 0001:0000bafe       ___scrt_is_user_matherr_present 0040cafe f   LIBCMT:matherr_detection.obj
 0001:0000bb0a       ___scrt_get_dyn_tls_init_callback 0040cb0a f   LIBCMT:dyn_tls_init.obj
 0001:0000bb10       ___scrt_get_dyn_tls_dtor_callback 0040cb10 f   LIBCMT:dyn_tls_dtor.obj
 0001:0000bb16       __RTC_Initialize           0040cb16 f   LIBCMT:_initsect_.obj
 0001:0000bb41       __RTC_Terminate            0040cb41 f   LIBCMT:_initsect_.obj
 0001:0000bb70       __alloca_probe             0040cb70 f   LIBCMT:chkstk.obj
 0001:0000bb70       __chkstk                   0040cb70 f   LIBCMT:chkstk.obj
 0001:0000bb9e       _IsProcessorFeaturePresent@4 0040cb9e f   kernel32:KERNEL32.dll
 0001:0000bba4       __get_purecall_handler     0040cba4 f   libvcruntime:purevirt.obj
 0001:0000bbc3       __purecall                 0040cbc3 f   libvcruntime:purevirt.obj
 0001:0000bbe0       _memcpy                    0040cbe0 f   libvcruntime:memcpy.obj
 0001:0000c160       _memmove                   0040d160 f   libvcruntime:memmove.obj
 0001:0000c6e0       _memset                    0040d6e0 f   libvcruntime:memset.obj
 0001:0000c840       _strstr                    0040d840 f   libvcruntime:strstr.obj
 0001:0000caa3       ___std_exception_copy      0040daa3 f   libvcruntime:std_exception.obj
 0001:0000cb06       ___std_exception_destroy   0040db06 f   libvcruntime:std_exception.obj
 0001:0000cb25       __CxxThrowException@8      0040db25 f   libvcruntime:throw.obj
 0001:0000cb93       ?_CallCatchBlock2@@YAPAXPAUEHRegistrationNode@@PBU_s_FuncInfo@@PAXHK@Z 0040db93 f   libvcruntime:trnsctrl.obj
 0001:0000cbf3       ?_CallSETranslator@@YAHPAUEHExceptionRecord@@PAUEHRegistrationNode@@PAX2PBU_s_FuncInfo@@H1@Z 0040dbf3 f   libvcruntime:trnsctrl.obj
 0001:0000ccd0       ?_GetRangeOfTrysToCheck@@YAPBU_s_TryBlockMapEntry@@PBU_s_FuncInfo@@HHPAI1@Z 0040dcd0 f   libvcruntime:trnsctrl.obj
 0001:0000cd48       ?_JumpToContinuation@@YGXPAXPAUEHRegistrationNode@@@Z 0040dd48 f   libvcruntime:trnsctrl.obj
 0001:0000cd7a       ?_UnwindNestedFrames@@YGXPAUEHRegistrationNode@@PAUEHExceptionRecord@@@Z 0040dd7a f   libvcruntime:trnsctrl.obj
 0001:0000cdcf       __CatchGuardHandler        0040ddcf f   libvcruntime:trnsctrl.obj
 0001:0000ce00       __CreateFrameInfo          0040de00 f   libvcruntime:trnsctrl.obj
 0001:0000ce24       __FindAndUnlinkFrame       0040de24 f   libvcruntime:trnsctrl.obj
 0001:0000ce6e       __IsExceptionObjectToBeDestroyed 0040de6e f   libvcruntime:trnsctrl.obj
 0001:0000ce94       __TranslatorGuardHandler   0040de94 f   libvcruntime:trnsctrl.obj
 0001:0000cf33       ___CxxFrameHandler3        0040df33 f   libvcruntime:trnsctrl.obj
 0001:0000cf69       ___DestructExceptionObject 0040df69 f   libvcruntime:frame.obj
 0001:0000cffd       ??0bad_exception@std@@QAE@ABV01@@Z 0040dffd f i libvcruntime:frame.obj
 0001:0000d018       ??0bad_exception@std@@QAE@XZ 0040e018 f i libvcruntime:frame.obj
 0001:0000d849       ?_CallMemberFunction0@@YGXQAX0@Z 0040e849 f i libvcruntime:frame.obj
 0001:0000d849       ?_CallMemberFunction2@@YGXQAX00H@Z 0040e849 f i libvcruntime:frame.obj
 0001:0000d849       ?_CallMemberFunction1@@YGXQAX00@Z 0040e849 f i libvcruntime:frame.obj
 0001:0000d850       ___AdjustPointer           0040e850 f   libvcruntime:frame.obj
 0001:0000d875       ___BuildCatchObject        0040e875 f   libvcruntime:frame.obj
 0001:0000d904       ___BuildCatchObjectHelper  0040e904 f   libvcruntime:frame.obj
 0001:0000da32       ___FrameUnwindFilter       0040ea32 f   libvcruntime:frame.obj
 0001:0000da77       ___FrameUnwindToState      0040ea77 f   libvcruntime:frame.obj
 0001:0000db3f       ___InternalCxxFrameHandler 0040eb3f f   libvcruntime:frame.obj
 0001:0000dc3b       ___TypeMatch               0040ec3b f   libvcruntime:frame.obj
 0001:0000dcc9       ___std_terminate           0040ecc9 f   libvcruntime:frame.obj
 0001:0000dcce       ___uncaught_exception      0040ecce f   libvcruntime:frame.obj
 0001:0000dce0       _memchr                    0040ece0 f   libvcruntime:memchr.obj
 0001:0000dd8d       _memcmp                    0040ed8d f   libvcruntime:_memcmp_.obj
 0001:0000f50d       ___vcrt_initialize         0041050d f   libvcruntime:initialization.obj
 0001:0000f536       ___vcrt_uninitialize       00410536 f   libvcruntime:initialization.obj
 0001:0000f5a0       __except_handler4          004105a0 f   libvcruntime:_chandler4_.obj
 0001:0000f706       ??$__crt_fast_encode_pointer@PAX@@YAPAXQAX@Z 00410706 f i libvcruntime:winapi_downlevel.obj
 0001:0000f706       ??$__crt_fast_encode_pointer@PAP6AXXZ@@YAPAP6AXXZQAP6AXXZ@Z 00410706 f i LIBCMT:utility.obj
 0001:0000f706       ??$__crt_fast_encode_pointer@P6GXPAU_RTL_CONDITION_VARIABLE@@@Z@@YAP6GXPAU_RTL_CONDITION_VARIABLE@@@ZQ6GX0@Z@Z 00410706 f i LIBCMT:thread_safe_statics.obj
 0001:0000f706       ??$__crt_fast_encode_pointer@P6GHPAU_RTL_CONDITION_VARIABLE@@PAU_RTL_CRITICAL_SECTION@@K@Z@@YAP6GHPAU_RTL_CONDITION_VARIABLE@@PAU_RTL_CRITICAL_SECTION@@K@ZQ6GH01K@Z@Z 00410706 f i LIBCMT:thread_safe_statics.obj
 0001:0000f844       ___vcrt_FlsAlloc           00410844 f   libvcruntime:winapi_downlevel.obj
 0001:0000f87e       ___vcrt_FlsFree            0041087e f   libvcruntime:winapi_downlevel.obj
 0001:0000f8b8       ___vcrt_FlsGetValue        004108b8 f   libvcruntime:winapi_downlevel.obj
 0001:0000f8f2       ___vcrt_FlsSetValue        004108f2 f   libvcruntime:winapi_downlevel.obj
 0001:0000f92f       ___vcrt_InitializeCriticalSectionEx 0041092f f   libvcruntime:winapi_downlevel.obj
 0001:0000f975       ___vcrt_initialize_winapi_thunks 00410975 f   libvcruntime:winapi_downlevel.obj
 0001:0000f9af       ___vcrt_uninitialize_winapi_thunks 004109af f   libvcruntime:winapi_downlevel.obj
 0001:0000f9e1       ___std_type_info_compare   004109e1 f   libvcruntime:std_type_info.obj
 0001:0000fa1d       ___vcrt_initialize_pure_virtual_call_handler 00410a1d f   libvcruntime:purevirt_data.obj
 0001:0000fa40       _strchr                    00410a40 f   libvcruntime:strchr.obj
 0001:0000faae       ___from_strstr_to_strchr   00410aae     libvcruntime:strchr.obj
 0001:0000fb6b       ___vcrt_freefls@4          00410b6b f   libvcruntime:per_thread_data.obj
 0001:0000fb87       ___vcrt_getptd             00410b87 f   libvcruntime:per_thread_data.obj
 0001:0000fb95       ___vcrt_getptd_noexit      00410b95 f   libvcruntime:per_thread_data.obj
 0001:0000fc27       ___vcrt_initialize_ptd     00410c27 f   libvcruntime:per_thread_data.obj
 0001:0000fc5a       ___vcrt_uninitialize_ptd   00410c5a f   libvcruntime:per_thread_data.obj
 0001:0000fc80       __CallSettingFrame@12      00410c80 f   libvcruntime:lowhelpr.obj
 0001:0000fca7       __NLG_Return               00410ca7     libvcruntime:lowhelpr.obj
 0001:0000fccc       _unexpected                00410ccc f   libvcruntime:unexpected.obj
 0001:0000fce8       ___vcrt_initialize_locks   00410ce8 f   libvcruntime:locks.obj
 0001:0000fd24       ___vcrt_uninitialize_locks 00410d24 f   libvcruntime:locks.obj
 0001:0000fd60       __local_unwind4            00410d60 f   libvcruntime:_exsup4_.obj
 0001:0000fe36       __seh_longjmp_unwind4@4    00410e36 f   libvcruntime:_exsup4_.obj
 0001:0000fe5e       @_EH4_CallFilterFunc@8     00410e5e f   libvcruntime:_exsup4_.obj
 0001:0000fe75       @_EH4_TransferToHandler@8  00410e75 f   libvcruntime:_exsup4_.obj
 0001:0000fe8e       @_EH4_GlobalUnwind2@8      00410e8e f   libvcruntime:_exsup4_.obj
 0001:0000fea7       @_EH4_LocalUnwind@16       00410ea7 f   libvcruntime:_exsup4_.obj
 0001:0000fec0       __global_unwind2           00410ec0 f   libvcruntime:_exsup_.obj
 0001:0000ff25       __local_unwind2            00410f25 f   libvcruntime:_exsup_.obj
 0001:0000ffa9       __abnormal_termination     00410fa9 f   libvcruntime:_exsup_.obj
 0001:0000ffcc       __NLG_Notify1              00410fcc f   libvcruntime:_exsup_.obj
 0001:0000ffd5       __NLG_Notify               00410fd5 f   libvcruntime:_exsup_.obj
 0001:0000ffec       __NLG_Dispatch             00410fec     libvcruntime:_exsup_.obj
 0001:0000ffec       __NLG_Dispatch2            00410fec     libvcruntime:_exsup_.obj
 0001:0000fff4       __NLG_Call                 00410ff4 f   libvcruntime:_exsup_.obj
 0001:0000fff6       __NLG_Return2              00410ff6     libvcruntime:_exsup_.obj
 0001:0000fff7       ___acrt_call_reportfault   00410ff7 f   libucrt:invalid_parameter.obj
 0001:00010132       ___acrt_initialize_invalid_parameter_handler 00411132 f   libucrt:invalid_parameter.obj
 0001:00010146       __invalid_parameter        00411146 f   libucrt:invalid_parameter.obj
 0001:000101c1       __invalid_parameter_noinfo 004111c1 f   libucrt:invalid_parameter.obj
 0001:000101d1       __invalid_parameter_noinfo_noreturn 004111d1 f   libucrt:invalid_parameter.obj
 0001:000101ee       __invoke_watson            004111ee f   libucrt:invalid_parameter.obj
 0001:00010221       ___acrt_errno_from_os_error 00411221 f   libucrt:errno.obj
 0001:00010264       ___acrt_errno_map_os_error 00411264 f   libucrt:errno.obj
 0001:00010287       ___doserrno                00411287 f   libucrt:errno.obj
 0001:0001029a       __errno                    0041129a f   libucrt:errno.obj
 0001:000102b0       _strcmp                    004112b0 f   libucrt:strcmp.obj
 0001:00010340       _strcpy                    00411340 f   libucrt:strcat.obj
 0001:00010350       _strcat                    00411350 f   libucrt:strcat.obj
 0001:00010440       _strcspn                   00411440 f   libucrt:strcspn.obj
 0001:00010490       _strlen                    00411490 f   libucrt:strlen.obj
 0001:0001051b       _calloc                    0041151b f   libucrt:calloc.obj
 0001:00010526       _free                      00411526 f   libucrt:free.obj
 0001:0001052b       _malloc                    0041152b f   libucrt:malloc.obj
 0001:0001070d       ___acrt_initialize_thread_local_exit_callback 0041170d f   libucrt:exit.obj
 0001:0001071c       __c_exit                   0041171c f   libucrt:exit.obj
 0001:0001072b       __cexit                    0041172b f   libucrt:exit.obj
 0001:0001073a       __exit                     0041173a f   libucrt:exit.obj
 0001:00010750       __register_thread_local_exe_atexit_callback 00411750 f   libucrt:exit.obj
 0001:00010788       _exit                      00411788 f   libucrt:exit.obj
 0001:0001079e       _abs                       0041179e f   libucrt:abs.obj
 0001:000107ad       ??$is_overflow_condition@K@__crt_strtox@@YA_NIK@Z 004117ad f i libucrt:atox.obj
 0001:000107e0       ??$make_c_string_character_source@DPAPAD@__crt_strtox@@YA?AV?$c_string_character_source@D@0@QBDQAPAD@Z 004117e0 f i libucrt:strtod.obj
 0001:000107e0       ??$make_c_string_character_source@_W$$T@__crt_strtox@@YA?AV?$c_string_character_source@_W@0@QB_W$$T@Z 004117e0 f i libucrt:atox.obj
 0001:000107e0       ??$make_c_string_character_source@D$$T@__crt_strtox@@YA?AV?$c_string_character_source@D@0@QBD$$T@Z 004117e0 f i libucrt:atox.obj
 0001:000107fb       ??$parse_integer@KV?$c_string_character_source@D@__crt_strtox@@@__crt_strtox@@YAKQAU__crt_locale_pointers@@V?$c_string_character_source@D@0@H_N@Z 004117fb f i libucrt:atox.obj
 0001:00010a23       ??$parse_integer@KV?$c_string_character_source@_W@__crt_strtox@@@__crt_strtox@@YAKQAU__crt_locale_pointers@@V?$c_string_character_source@_W@0@H_N@Z 00411a23 f i libucrt:atox.obj
 0001:00011108       ??0_LocaleUpdate@@QAE@QAU__crt_locale_pointers@@@Z 00412108 f i libucrt:atox.obj
 0001:0001118b       ?unget@?$c_string_character_source@D@__crt_strtox@@QAEXD@Z 0041218b f i libucrt:atox.obj
 0001:000111b3       ?unget@?$c_string_character_source@_W@__crt_strtox@@QAEX_W@Z 004121b3 f i libucrt:atox.obj
 0001:000111df       ?validate@?$string_output_adapter@D@__crt_stdio_output@@QBE_NXZ 004121df f i libucrt:output.obj
 0001:000111df       ?validate@?$c_string_character_source@D@__crt_strtox@@QBE_NXZ 004121df f i libucrt:atox.obj
 0001:000111df       ?validate@?$c_string_character_source@_W@__crt_strtox@@QBE_NXZ 004121df f i libucrt:atox.obj
 0001:000111fa       __chvalidchk_l             004121fa f i libucrt:atox.obj
 0001:00011224       __ischartype_l             00412224 f i libucrt:atox.obj
 0001:00011257       __wtol                     00412257 f   libucrt:atox.obj
 0001:00011281       _atoi                      00412281 f   libucrt:atox.obj
 0001:000112ab       _fabs                      004122ab f   libucrt:fabs.obj
 0001:0001135c       _frexp                     0041235c f   libucrt:frexp.obj
 0001:00011458       ___acrt_initialize_stdio   00412458 f   libucrt:_file.obj
 0001:00011520       ___acrt_iob_func           00412520 f   libucrt:_file.obj
 0001:00011530       ___acrt_uninitialize_stdio 00412530 f   libucrt:_file.obj
 0001:0001157c       __get_stream_buffer_pointers 0041257c f   libucrt:_file.obj
 0001:000115c2       __lock_file                004125c2 f   libucrt:_file.obj
 0001:000115d6       __unlock_file              004125d6 f   libucrt:_file.obj
 0001:000115ea       __fclose_nolock            004125ea f   libucrt:fclose.obj
 0001:00011660       _fclose                    00412660 f   libucrt:fclose.obj
 0001:000116e0       ___acrt_stdio_flush_nolock 004126e0 f   libucrt:fflush.obj
 0001:00011746       __fflush_nolock            00412746 f   libucrt:fflush.obj
 0001:0001178d       __flushall                 0041278d f   libucrt:fflush.obj
 0001:0001186e       _fflush                    0041286e f   libucrt:fflush.obj
 0001:000118c7       __fgetc_nolock             004128c7 f   libucrt:fgetc.obj
 0001:00011903       _fgetc                     00412903 f   libucrt:fgetc.obj
 0001:00011a05       _fgetpos                   00412a05 f   libucrt:fgetpos.obj
 0001:00011b21       __fsopen                   00412b21 f   libucrt:fopen.obj
 0001:00011b2c       _fopen                     00412b2c f   libucrt:fopen.obj
 0001:00011b43       __fputc_nolock             00412b43 f   libucrt:fputc.obj
 0001:00011b6c       _fputc                     00412b6c f   libucrt:fputc.obj
 0001:00011c70       __fread_nolock_s           00412c70 f   libucrt:fread.obj
 0001:00011e3c       _fread                     00412e3c f   libucrt:fread.obj
 0001:00011e59       _fread_s                   00412e59 f   libucrt:fread.obj
 0001:00011f6d       _fsetpos                   00412f6d f   libucrt:fsetpos.obj
 0001:00011fa8       ?LongLongSub@@YAJ_J0PA_J@Z 00412fa8 f i libucrt:fseek.obj
 0001:00012262       __fseeki64                 00413262 f   libucrt:fseek.obj
 0001:0001227d       _fseek                     0041327d f   libucrt:fseek.obj
 0001:00012860       __ftelli64                 00413860 f   libucrt:ftell.obj
 0001:0001286b       __ftelli64_nolock          0041386b f   libucrt:ftell.obj
 0001:00012876       _ftell                     00413876 f   libucrt:ftell.obj
 0001:00012881       ??$?RV<lambda_11b4f7b0d3157825a5656a18eba1ae27>@@AAV<lambda_b51c0495177f500e782686251704ae76>@@V<lambda_cf89b47920b5017557bfe891e78aca36>@@@?$__crt_seh_guarded_call@I@@QAEI$$QAV<lambda_11b4f7b0d3157825a5656a18eba1ae27>@@AAV<lambda_b51c0495177f500e782686251704ae76>@@$$QAV<lambda_cf89b47920b5017557bfe891e78aca36>@@@Z 00413881 f i libucrt:fwrite.obj
 0001:000128d2       ??$__acrt_lock_stream_and_call@V<lambda_b51c0495177f500e782686251704ae76>@@@@YAIQAU_iobuf@@$$QAV<lambda_b51c0495177f500e782686251704ae76>@@@Z 004138d2 f i libucrt:fwrite.obj
 0001:00012940       __fwrite_nolock            00413940 f   libucrt:fwrite.obj
 0001:00012ab9       _fwrite                    00413ab9 f   libucrt:fwrite.obj
 0001:00012b11       _rewind                    00413b11 f   libucrt:rewind.obj
 0001:00012bdf       ??$?RV<lambda_d92cfe8357b99225085016881b624cb0>@@AAV<lambda_b721fa326cdb32351d23dfa67958c160>@@V<lambda_42d75b0848218ec137fa420c8ba9fdf9>@@@?$__crt_seh_guarded_call@H@@QAEH$$QAV<lambda_d92cfe8357b99225085016881b624cb0>@@AAV<lambda_b721fa326cdb32351d23dfa67958c160>@@$$QAV<lambda_42d75b0848218ec137fa420c8ba9fdf9>@@@Z 00413bdf f i libucrt:setvbuf.obj
 0001:00012c30       ??$__acrt_lock_stream_and_call@V<lambda_b721fa326cdb32351d23dfa67958c160>@@@@YAHQAU_iobuf@@$$QAV<lambda_b721fa326cdb32351d23dfa67958c160>@@@Z 00413c30 f i libucrt:setvbuf.obj
 0001:00012d25       _setvbuf                   00413d25 f   libucrt:setvbuf.obj
 0001:00012d9b       __ungetc_nolock            00413d9b f   libucrt:ungetc.obj
 0001:00012e8a       _ungetc                    00413e8a f   libucrt:ungetc.obj
 0001:0001326a       ??$count@D@formatting_buffer@__crt_stdio_output@@QBEIXZ 0041426a f i libucrt:output.obj
 0001:00013282       ??$ensure_buffer_is_big_enough@D@formatting_buffer@__crt_stdio_output@@QAE_NI@Z 00414282 f i libucrt:output.obj
 0001:00013308       ??$is_wide_character_specifier@D@__crt_stdio_output@@YA_N_KDW4length_modifier@0@@Z 00414308 f i libucrt:output.obj
 0001:00013348       ??$scratch_data@D@formatting_buffer@__crt_stdio_output@@QAEPADXZ 00414348 f i libucrt:output.obj
 0001:00013366       ??$type_case_integer_parse_into_buffer@I@?$output_processor@DV?$string_output_adapter@D@__crt_stdio_output@@V?$standard_base@DV?$string_output_adapter@D@__crt_stdio_output@@@2@@__crt_stdio_output@@AAEXII_N@Z 00414366 f i libucrt:output.obj
 0001:00013366       ??$type_case_integer_parse_into_buffer@I@?$output_processor@DV?$string_output_adapter@D@__crt_stdio_output@@V?$format_validation_base@DV?$string_output_adapter@D@__crt_stdio_output@@@2@@__crt_stdio_output@@AAEXII_N@Z 00414366 f i libucrt:output.obj
 0001:000133db       ??$type_case_integer_parse_into_buffer@_K@?$output_processor@DV?$string_output_adapter@D@__crt_stdio_output@@V?$standard_base@DV?$string_output_adapter@D@__crt_stdio_output@@@2@@__crt_stdio_output@@AAEX_KI_N@Z 004143db f i libucrt:output.obj
 0001:000133db       ??$type_case_integer_parse_into_buffer@_K@?$output_processor@DV?$string_output_adapter@D@__crt_stdio_output@@V?$format_validation_base@DV?$string_output_adapter@D@__crt_stdio_output@@@2@@__crt_stdio_output@@AAEX_KI_N@Z 004143db f i libucrt:output.obj
 0001:00013463       ??$write_multiple_characters@V?$string_output_adapter@D@__crt_stdio_output@@D@__crt_stdio_output@@YAXABV?$string_output_adapter@D@0@DHQAH@Z 00414463 f i libucrt:output.obj
 0001:0001348f       ??0?$common_data@D@__crt_stdio_output@@IAE@XZ 0041448f f i libucrt:output.obj
 0001:000134d6       ??0?$output_adapter_data@DV?$string_output_adapter@D@__crt_stdio_output@@@__crt_stdio_output@@IAE@ABV?$string_output_adapter@D@1@_KQBDQAU__crt_locale_pointers@@QAD@Z 004144d6 f i libucrt:output.obj
 0001:00013512       ??0?$output_processor@DV?$string_output_adapter@D@__crt_stdio_output@@V?$format_validation_base@DV?$string_output_adapter@D@__crt_stdio_output@@@2@@__crt_stdio_output@@QAE@ABV?$string_output_adapter@D@1@_KQBDQAU__crt_locale_pointers@@QAD@Z 00414512 f i libucrt:output.obj
 0001:00013512       ??0?$output_processor@DV?$string_output_adapter@D@__crt_stdio_output@@V?$standard_base@DV?$string_output_adapter@D@__crt_stdio_output@@@2@@__crt_stdio_output@@QAE@ABV?$string_output_adapter@D@1@_KQBDQAU__crt_locale_pointers@@QAD@Z 00414512 f i libucrt:output.obj
 0001:00013547       ??1formatting_buffer@__crt_stdio_output@@QAE@XZ 00414547 f i libucrt:output.obj
 0001:00013561       ??4?$__crt_unique_heap_ptr@DU__crt_internal_free_policy@@@@QAEAAV0@$$QAV0@@Z 00414561 f i libucrt:output.obj
 0001:00013585       ?crop_zeroes@__crt_stdio_output@@YAXPADQAU__crt_locale_pointers@@@Z 00414585 f i libucrt:output.obj
 0001:000135dc       ?find_next_state@?$output_processor@DV?$string_output_adapter@D@__crt_stdio_output@@V?$format_validation_base@DV?$string_output_adapter@D@__crt_stdio_output@@@2@@__crt_stdio_output@@ABE?AW4state@2@DW432@@Z 004145dc f i libucrt:output.obj
 0001:00013611       ?find_next_state@?$output_processor@DV?$string_output_adapter@D@__crt_stdio_output@@V?$standard_base@DV?$string_output_adapter@D@__crt_stdio_output@@@2@@__crt_stdio_output@@ABE?AW4state@2@DW432@@Z 00414611 f i libucrt:output.obj
 0001:00013643       ?force_decimal_point@__crt_stdio_output@@YAXPADQAU__crt_locale_pointers@@@Z 00414643 f i libucrt:output.obj
 0001:0001369f       ?parse_int_from_format_string@?$output_processor@DV?$string_output_adapter@D@__crt_stdio_output@@V?$standard_base@DV?$string_output_adapter@D@__crt_stdio_output@@@2@@__crt_stdio_output@@AAE_NQAH@Z 0041469f f i libucrt:output.obj
 0001:0001369f       ?parse_int_from_format_string@?$output_processor@DV?$string_output_adapter@D@__crt_stdio_output@@V?$format_validation_base@DV?$string_output_adapter@D@__crt_stdio_output@@@2@@__crt_stdio_output@@AAE_NQAH@Z 0041469f f i libucrt:output.obj
 0001:000136fb       ?process@?$output_processor@DV?$string_output_adapter@D@__crt_stdio_output@@V?$format_validation_base@DV?$string_output_adapter@D@__crt_stdio_output@@@2@@__crt_stdio_output@@QAEHXZ 004146fb f i libucrt:output.obj
 0001:00013823       ?process@?$output_processor@DV?$string_output_adapter@D@__crt_stdio_output@@V?$standard_base@DV?$string_output_adapter@D@__crt_stdio_output@@@2@@__crt_stdio_output@@QAEHXZ 00414823 f i libucrt:output.obj
 0001:0001393f       ?state_case_flag@?$output_processor@DV?$string_output_adapter@D@__crt_stdio_output@@V?$standard_base@DV?$string_output_adapter@D@__crt_stdio_output@@@2@@__crt_stdio_output@@AAE_NXZ 0041493f f i libucrt:output.obj
 0001:0001393f       ?state_case_flag@?$output_processor@DV?$string_output_adapter@D@__crt_stdio_output@@V?$format_validation_base@DV?$string_output_adapter@D@__crt_stdio_output@@@2@@__crt_stdio_output@@AAE_NXZ 0041493f f i libucrt:output.obj
 0001:0001397c       ?state_case_normal@?$output_processor@DV?$string_output_adapter@D@__crt_stdio_output@@V?$standard_base@DV?$string_output_adapter@D@__crt_stdio_output@@@2@@__crt_stdio_output@@AAE_NXZ 0041497c f i libucrt:output.obj
 0001:0001397c       ?state_case_normal@?$output_processor@DV?$string_output_adapter@D@__crt_stdio_output@@V?$format_validation_base@DV?$string_output_adapter@D@__crt_stdio_output@@@2@@__crt_stdio_output@@AAE_NXZ 0041497c f i libucrt:output.obj
 0001:0001399b       ?state_case_normal_common@?$output_processor@DV?$string_output_adapter@D@__crt_stdio_output@@V?$standard_base@DV?$string_output_adapter@D@__crt_stdio_output@@@2@@__crt_stdio_output@@AAE_NXZ 0041499b f i libucrt:output.obj
 0001:0001399b       ?state_case_normal_common@?$output_processor@DV?$string_output_adapter@D@__crt_stdio_output@@V?$format_validation_base@DV?$string_output_adapter@D@__crt_stdio_output@@@2@@__crt_stdio_output@@AAE_NXZ 0041499b f i libucrt:output.obj
 0001:000139c5       ?state_case_normal_tchar@?$output_processor@DV?$string_output_adapter@D@__crt_stdio_output@@V?$format_validation_base@DV?$string_output_adapter@D@__crt_stdio_output@@@2@@__crt_stdio_output@@AAE_ND@Z 004149c5 f i libucrt:output.obj
 0001:000139c5       ?state_case_normal_tchar@?$output_processor@DV?$string_output_adapter@D@__crt_stdio_output@@V?$standard_base@DV?$string_output_adapter@D@__crt_stdio_output@@@2@@__crt_stdio_output@@AAE_ND@Z 004149c5 f i libucrt:output.obj
 0001:00013a26       ?state_case_precision@?$output_processor@DV?$string_output_adapter@D@__crt_stdio_output@@V?$format_validation_base@DV?$string_output_adapter@D@__crt_stdio_output@@@2@@__crt_stdio_output@@AAE_NXZ 00414a26 f i libucrt:output.obj
 0001:00013a26       ?state_case_precision@?$output_processor@DV?$string_output_adapter@D@__crt_stdio_output@@V?$standard_base@DV?$string_output_adapter@D@__crt_stdio_output@@@2@@__crt_stdio_output@@AAE_NXZ 00414a26 f i libucrt:output.obj
 0001:00013a4e       ?state_case_size@?$output_processor@DV?$string_output_adapter@D@__crt_stdio_output@@V?$format_validation_base@DV?$string_output_adapter@D@__crt_stdio_output@@@2@@__crt_stdio_output@@AAE_NXZ 00414a4e f i libucrt:output.obj
 0001:00013a4e       ?state_case_size@?$output_processor@DV?$string_output_adapter@D@__crt_stdio_output@@V?$standard_base@DV?$string_output_adapter@D@__crt_stdio_output@@@2@@__crt_stdio_output@@AAE_NXZ 00414a4e f i libucrt:output.obj
 0001:00013bb7       ?state_case_type@?$output_processor@DV?$string_output_adapter@D@__crt_stdio_output@@V?$format_validation_base@DV?$string_output_adapter@D@__crt_stdio_output@@@2@@__crt_stdio_output@@AAE_NXZ 00414bb7 f i libucrt:output.obj
 0001:00013bb7       ?state_case_type@?$output_processor@DV?$string_output_adapter@D@__crt_stdio_output@@V?$standard_base@DV?$string_output_adapter@D@__crt_stdio_output@@@2@@__crt_stdio_output@@AAE_NXZ 00414bb7 f i libucrt:output.obj
 0001:00013de6       ?state_case_width@?$output_processor@DV?$string_output_adapter@D@__crt_stdio_output@@V?$standard_base@DV?$string_output_adapter@D@__crt_stdio_output@@@2@@__crt_stdio_output@@AAE_NXZ 00414de6 f i libucrt:output.obj
 0001:00013de6       ?state_case_width@?$output_processor@DV?$string_output_adapter@D@__crt_stdio_output@@V?$format_validation_base@DV?$string_output_adapter@D@__crt_stdio_output@@@2@@__crt_stdio_output@@AAE_NXZ 00414de6 f i libucrt:output.obj
 0001:00013e11       ?to_integer_size@__crt_stdio_output@@YAIW4length_modifier@1@@Z 00414e11 f i libucrt:output.obj
 0001:00013e6d       ?type_case_Z@?$output_processor@DV?$string_output_adapter@D@__crt_stdio_output@@V?$format_validation_base@DV?$string_output_adapter@D@__crt_stdio_output@@@2@@__crt_stdio_output@@AAE_NXZ 00414e6d f i libucrt:output.obj
 0001:00013e6d       ?type_case_Z@?$output_processor@DV?$string_output_adapter@D@__crt_stdio_output@@V?$standard_base@DV?$string_output_adapter@D@__crt_stdio_output@@@2@@__crt_stdio_output@@AAE_NXZ 00414e6d f i libucrt:output.obj
 0001:00013ed0       ?type_case_a@?$output_processor@DV?$string_output_adapter@D@__crt_stdio_output@@V?$standard_base@DV?$string_output_adapter@D@__crt_stdio_output@@@2@@__crt_stdio_output@@AAE_NXZ 00414ed0 f i libucrt:output.obj
 0001:00013ed0       ?type_case_a@?$output_processor@DV?$string_output_adapter@D@__crt_stdio_output@@V?$format_validation_base@DV?$string_output_adapter@D@__crt_stdio_output@@@2@@__crt_stdio_output@@AAE_NXZ 00414ed0 f i libucrt:output.obj
 0001:0001402a       ?type_case_c_tchar@?$output_processor@DV?$string_output_adapter@D@__crt_stdio_output@@V?$format_validation_base@DV?$string_output_adapter@D@__crt_stdio_output@@@2@@__crt_stdio_output@@AAE_ND@Z 0041502a f i libucrt:output.obj
 0001:0001402a       ?type_case_c_tchar@?$output_processor@DV?$string_output_adapter@D@__crt_stdio_output@@V?$standard_base@DV?$string_output_adapter@D@__crt_stdio_output@@@2@@__crt_stdio_output@@AAE_ND@Z 0041502a f i libucrt:output.obj
 0001:000140ba       ?type_case_integer@?$output_processor@DV?$string_output_adapter@D@__crt_stdio_output@@V?$standard_base@DV?$string_output_adapter@D@__crt_stdio_output@@@2@@__crt_stdio_output@@AAE_NI_N@Z 004150ba f i libucrt:output.obj
 0001:000140ba       ?type_case_integer@?$output_processor@DV?$string_output_adapter@D@__crt_stdio_output@@V?$format_validation_base@DV?$string_output_adapter@D@__crt_stdio_output@@@2@@__crt_stdio_output@@AAE_NI_N@Z 004150ba f i libucrt:output.obj
 0001:00014204       ?type_case_n@?$output_processor@DV?$string_output_adapter@D@__crt_stdio_output@@V?$standard_base@DV?$string_output_adapter@D@__crt_stdio_output@@@2@@__crt_stdio_output@@AAE_NXZ 00415204 f i libucrt:output.obj
 0001:00014204       ?type_case_n@?$output_processor@DV?$string_output_adapter@D@__crt_stdio_output@@V?$format_validation_base@DV?$string_output_adapter@D@__crt_stdio_output@@@2@@__crt_stdio_output@@AAE_NXZ 00415204 f i libucrt:output.obj
 0001:00014278       ?type_case_o@?$output_processor@DV?$string_output_adapter@D@__crt_stdio_output@@V?$format_validation_base@DV?$string_output_adapter@D@__crt_stdio_output@@@2@@__crt_stdio_output@@AAE_NXZ 00415278 f i libucrt:output.obj
 0001:00014278       ?type_case_o@?$output_processor@DV?$string_output_adapter@D@__crt_stdio_output@@V?$standard_base@DV?$string_output_adapter@D@__crt_stdio_output@@@2@@__crt_stdio_output@@AAE_NXZ 00415278 f i libucrt:output.obj
 0001:00014297       ?type_case_p@?$output_processor@DV?$string_output_adapter@D@__crt_stdio_output@@V?$standard_base@DV?$string_output_adapter@D@__crt_stdio_output@@@2@@__crt_stdio_output@@AAE_NXZ 00415297 f i libucrt:output.obj
 0001:00014297       ?type_case_p@?$output_processor@DV?$string_output_adapter@D@__crt_stdio_output@@V?$format_validation_base@DV?$string_output_adapter@D@__crt_stdio_output@@@2@@__crt_stdio_output@@AAE_NXZ 00415297 f i libucrt:output.obj
 0001:000142af       ?type_case_s@?$output_processor@DV?$string_output_adapter@D@__crt_stdio_output@@V?$standard_base@DV?$string_output_adapter@D@__crt_stdio_output@@@2@@__crt_stdio_output@@AAE_NXZ 004152af f i libucrt:output.obj
 0001:000142af       ?type_case_s@?$output_processor@DV?$string_output_adapter@D@__crt_stdio_output@@V?$format_validation_base@DV?$string_output_adapter@D@__crt_stdio_output@@@2@@__crt_stdio_output@@AAE_NXZ 004152af f i libucrt:output.obj
 0001:00014322       ?validate_and_update_state_at_end_of_format_string@?$format_validation_base@DV?$string_output_adapter@D@__crt_stdio_output@@@__crt_stdio_output@@IBE_NXZ 00415322 f i libucrt:output.obj
 0001:00014344       ?write_character@?$string_output_adapter@D@__crt_stdio_output@@QBE_NDQAH@Z 00415344 f i libucrt:output.obj
 0001:00014386       ?write_stored_string_tchar@?$output_processor@DV?$string_output_adapter@D@__crt_stdio_output@@V?$format_validation_base@DV?$string_output_adapter@D@__crt_stdio_output@@@2@@__crt_stdio_output@@AAE_ND@Z 00415386 f i libucrt:output.obj
 0001:00014386       ?write_stored_string_tchar@?$output_processor@DV?$string_output_adapter@D@__crt_stdio_output@@V?$standard_base@DV?$string_output_adapter@D@__crt_stdio_output@@@2@@__crt_stdio_output@@AAE_ND@Z 00415386 f i libucrt:output.obj
 0001:0001442d       ?write_string@?$string_output_adapter@D@__crt_stdio_output@@QBEXQBDHQAH1@Z 0041542d f i libucrt:output.obj
 0001:000144c0       ___stdio_common_vsprintf   004154c0 f   libucrt:output.obj
 0001:000144e4       ___stdio_common_vsprintf_s 004154e4 f   libucrt:output.obj
 0001:00014508       _localeconv                00415508 f   libucrt:localeconv.obj
 0001:00014532       ___acrt_initialize_locks   00415532 f   libucrt:locks.obj
 0001:00014573       ___acrt_lock               00415573 f   libucrt:locks.obj
 0001:0001458a       ___acrt_uninitialize_locks 0041558a f   libucrt:locks.obj
 0001:000145bb       ___acrt_unlock             004155bb f   libucrt:locks.obj
 0001:000145d2       __lock_locales             004155d2 f   libucrt:locks.obj
 0001:000145db       __unlock_locales           004155db f   libucrt:locks.obj
 0001:000145e4       __calloc_base              004155e4 f   libucrt:calloc_base.obj
 0001:00014641       ___pctype_func             00415641 f   libucrt:ctype.obj
 0001:00014667       __isdigit_l                00415667 f i libucrt:_ctype.obj
 0001:0001469f       __islower_l                0041569f f i libucrt:_ctype.obj
 0001:000146d7       __isupper_l                004156d7 f i libucrt:_ctype.obj
 0001:0001470f       _isdigit                   0041570f f i libucrt:_ctype.obj
 0001:0001473c       _islower                   0041573c f i libucrt:_ctype.obj
 0001:00014769       _isupper                   00415769 f i libucrt:_ctype.obj
 0001:00014796       __wcsdup                   00415796 f   libucrt:wcsdup.obj
 0001:000147f7       ____lc_codepage_func       004157f7 f   libucrt:initctype.obj
 0001:0001481e       ____lc_locale_name_func    0041581e f   libucrt:initctype.obj
 0001:00014847       ____mb_cur_max_func        00415847 f   libucrt:initctype.obj
 0001:0001486e       ___acrt_locale_initialize_ctype 0041586e f   libucrt:initctype.obj
 0001:00014c65       __ismbblead                00415c65 f   libucrt:ismbbyte.obj
 0001:00014d1a       _setlocale                 00415d1a f   libucrt:setlocale.obj
 0001:00014e77       ___strncnt                 00415e77 f   libucrt:strncnt.obj
 0001:00014e93       __free_base                00415e93 f   libucrt:free_base.obj
 0001:00014ecd       __malloc_base              00415ecd f   libucrt:malloc_base.obj
 0001:00014f1b       _abort                     00415f1b f   libucrt:abort.obj
 0001:00014f5e       __realloc_base             00415f5e f   libucrt:realloc_base.obj
 0001:00014fd0       ?divide@__crt_strtox@@YA_KAAUbig_integer@1@ABU21@@Z 00415fd0 f i libucrt:strtod.obj
 0001:00015480       _pow                       00416480 f   libucrt:pow.obj
 0001:000154c0       __CIpow                    004164c0 f   libucrt:pow.obj
 0001:000154fb       __CIpow_default            004164fb f   libucrt:pow.obj
 0001:00015514       __pow_default              00416514     libucrt:pow.obj
 0001:00015709       _wcscpy_s                  00416709 f   libucrt:wcscpy_s.obj
 0001:0001576d       _strnlen                   0041676d f   libucrt:strnlen.obj
 0001:00015894       _wcsnlen                   00416894 f   libucrt:strnlen.obj
 0001:00015bb2       __tolower_l                00416bb2 f   libucrt:tolower_toupper.obj
 0001:00015bcc       _tolower                   00416bcc f   libucrt:tolower_toupper.obj
 0001:00015bfc       ?initialize@?$dual_state_global@PAPA_W@__crt_state_management@@QAEXQAPA_W@Z 00416bfc f i libucrt:environment_initialization.obj
 0001:00015bfc       ?initialize@?$dual_state_global@P6AXH@Z@__crt_state_management@@QAEXQ6AXH@Z@Z 00416bfc f i libucrt:signal.obj
 0001:00015bfc       ?initialize@?$dual_state_global@J@__crt_state_management@@QAEXJ@Z 00416bfc f i libucrt:timeset.obj
 0001:00015bfc       ?initialize@?$dual_state_global@P6AHI@Z@__crt_state_management@@QAEXQ6AHI@Z@Z 00416bfc f i libucrt:new_handler.obj
 0001:00015bfc       ?initialize@?$dual_state_global@PAU__crt_locale_data@@@__crt_state_management@@QAEXQAU__crt_locale_data@@@Z 00416bfc f i libucrt:initialization.obj
 0001:00015bfc       ?initialize@?$dual_state_global@P6AXPB_W00II@Z@__crt_state_management@@QAEXQ6AXPB_W00II@Z@Z 00416bfc f i libucrt:invalid_parameter.obj
 0001:00015bfc       ?initialize@?$dual_state_global@P6AHPAU_exception@@@Z@__crt_state_management@@QAEXQ6AHPAU_exception@@@Z@Z 00416bfc f i libucrt:matherr.obj
 0001:00015bfc       ?initialize@?$dual_state_global@H@__crt_state_management@@QAEXH@Z 00416bfc f i libucrt:timeset.obj
 0001:00015c2d       ___acrt_initialize_new_handler 00416c2d f   libucrt:new_handler.obj
 0001:00015c41       __callnewh                 00416c41 f   libucrt:new_handler.obj
 0001:00015c85       __query_new_handler        00416c85 f   libucrt:new_handler.obj
 0001:00015cd7       __seh_filter_exe           00416cd7 f   libucrt:exception_filter.obj
 0001:000160ef       ___acrt_allocate_buffer_for_argv 004170ef f   libucrt:argv_parsing.obj
 0001:00016144       __configure_wide_argv      00417144 f   libucrt:argv_parsing.obj
 0001:000162cc       ??$uninitialize@A6AXAAPAPAD@Z@?$dual_state_global@PAPAD@__crt_state_management@@QAEXA6AXAAPAPAD@Z@Z 004172cc f i libucrt:environment_initialization.obj
 0001:000162cc       ??$uninitialize@A6AXAAPAPA_W@Z@?$dual_state_global@PAPA_W@__crt_state_management@@QAEXA6AXAAPAPA_W@Z@Z 004172cc f i libucrt:environment_initialization.obj
 0001:00016342       ___dcrt_uninitialize_environments_nolock 00417342 f   libucrt:environment_initialization.obj
 0001:00016379       __initialize_wide_environment 00417379 f   libucrt:environment_initialization.obj
 0001:0001637e       ??$?RV<lambda_800076c951b434888f4765a74a194fcc>@@AAV<lambda_4e60a939b0d047cfe11ddc22648dfba9>@@V<lambda_6dbb1268764f43b569ce7b67e331d33a>@@@?$__crt_seh_guarded_call@H@@QAEH$$QAV<lambda_800076c951b434888f4765a74a194fcc>@@AAV<lambda_4e60a939b0d047cfe11ddc22648dfba9>@@$$QAV<lambda_6dbb1268764f43b569ce7b67e331d33a>@@@Z 0041737e f i libucrt:onexit.obj
 0001:000163cf       ??$?RV<lambda_995298e7d72eb4c2aab26c0585b3abe5>@@AAV<lambda_275893d493268fdec8709772e3fcec0e>@@V<lambda_293819299cbf9a7022e18b56a874bb5c>@@@?$__crt_seh_guarded_call@H@@QAEH$$QAV<lambda_995298e7d72eb4c2aab26c0585b3abe5>@@AAV<lambda_275893d493268fdec8709772e3fcec0e>@@$$QAV<lambda_293819299cbf9a7022e18b56a874bb5c>@@@Z 004173cf f i libucrt:onexit.obj
 0001:00016420       ??$__acrt_lock_and_call@V<lambda_275893d493268fdec8709772e3fcec0e>@@@@YAHW4__acrt_lock_id@@$$QAV<lambda_275893d493268fdec8709772e3fcec0e>@@@Z 00417420 f i libucrt:onexit.obj
 0001:00016448       ??$__acrt_lock_and_call@V<lambda_4e60a939b0d047cfe11ddc22648dfba9>@@@@YAHW4__acrt_lock_id@@$$QAV<lambda_4e60a939b0d047cfe11ddc22648dfba9>@@@Z 00417448 f i libucrt:onexit.obj
 0001:00016470       ??$__crt_fast_encode_pointer@P6GXPAXK0@Z@@YAP6GXPAXK0@ZQ6GX0K0@Z@Z 00417470 f i libucrt:exit.obj
 0001:00016470       ??$__crt_fast_encode_pointer@P6GHPA_WKJ@Z@@YAP6GHPA_WKJ@ZQ6GH0KJ@Z@Z 00417470 f i libucrt:winapi_thunks.obj
 0001:00016470       ??$__crt_fast_encode_pointer@P6AHPAU_exception@@@Z@@YAP6AHPAU_exception@@@ZQ6AH0@Z@Z 00417470 f i libucrt:matherr.obj
 0001:00016470       ??$__crt_fast_encode_pointer@P6AHXZ@@YAP6AHXZQ6AHXZ@Z 00417470 f i libucrt:onexit.obj
 0001:000166f0       __crt_atexit               004176f0 f   libucrt:onexit.obj
 0001:00016706       __execute_onexit_table     00417706 f   libucrt:onexit.obj
 0001:00016723       __initialize_onexit_table  00417723 f   libucrt:onexit.obj
 0001:00016760       __register_onexit_function 00417760 f   libucrt:onexit.obj
 0001:000167b8       ___acrt_uninitialize_command_line 004177b8 f   libucrt:argv_data.obj
 0001:000167b8       __should_initialize_environment 004177b8 f   LIBCMT:env_mode.obj
 0001:00016878       ___acrt_initialize         00417878 f   libucrt:initialization.obj
 0001:0001688a       ___acrt_uninitialize       0041788a f   libucrt:initialization.obj
 0001:0001689c       __query_app_type           0041789c f   libucrt:report_runtime_error.obj
 0001:000168a2       __set_app_type             004178a2 f   libucrt:report_runtime_error.obj
 0001:000168b1       ___acrt_has_user_matherr   004178b1 f   libucrt:matherr.obj
 0001:000168ca       ___acrt_initialize_user_matherr 004178ca f   libucrt:matherr.obj
 0001:000168de       ___acrt_invoke_user_matherr 004178de f   libucrt:matherr.obj
 0001:00016927       ___setusermatherr          00417927 f   libucrt:matherr.obj
 0001:0001693c       __get_wide_winmain_command_line 0041793c f   libucrt:argv_winmain.obj
 0001:00016982       __initterm                 00417982 f   libucrt:initterm.obj
 0001:000169de       __initterm_e               004179de f   libucrt:initterm.obj
 0001:00016a23       __get_fmode                00417a23 f   libucrt:setmode.obj
 0001:00016a4f       __set_fmode                00417a4f f   libucrt:setmode.obj
 0001:00016a8c       __setmode_nolock           00417a8c f   libucrt:setmode.obj
 0001:00016b5d       ??$?RV<lambda_70818de7b02deff9841e8b0962a60ed9>@@AAV<lambda_2af78c5f5901b1372d98f9ab3177dfa6>@@AAV<lambda_f51fe5fd7c79a33db34fc9310f277369>@@@?$__crt_seh_guarded_call@X@@QAEX$$QAV<lambda_70818de7b02deff9841e8b0962a60ed9>@@AAV<lambda_2af78c5f5901b1372d98f9ab3177dfa6>@@AAV<lambda_f51fe5fd7c79a33db34fc9310f277369>@@@Z 00417b5d f i libucrt:wsetlocale.obj
 0001:00016b98       ??$?RV<lambda_c76fdea48760d5f9368b465f31df4405>@@AAV<lambda_e378711a6f6581bf7f0efd7cdf97f5d9>@@V<lambda_e927a58b2a85c081d733e8c6192ae2d2>@@@?$__crt_seh_guarded_call@X@@QAEX$$QAV<lambda_c76fdea48760d5f9368b465f31df4405>@@AAV<lambda_e378711a6f6581bf7f0efd7cdf97f5d9>@@$$QAV<lambda_e927a58b2a85c081d733e8c6192ae2d2>@@@Z 00417b98 f i libucrt:wsetlocale.obj
 0001:00016bdb       ??$__acrt_lock_and_call@V<lambda_e378711a6f6581bf7f0efd7cdf97f5d9>@@@@YAXW4__acrt_lock_id@@$$QAV<lambda_e378711a6f6581bf7f0efd7cdf97f5d9>@@@Z 00417bdb f i libucrt:wsetlocale.obj
 0001:00016d5d       ___acrt_copy_locale_name   00417d5d f   libucrt:wsetlocale.obj
 0001:00016dc3       ___acrt_set_locale_changed 00417dc3 f   libucrt:wsetlocale.obj
 0001:00016dce       ___acrt_uninitialize_locale 00417dce f   libucrt:wsetlocale.obj
 0001:00016e20       ___lc_lctowcs              00417e20 f   libucrt:wsetlocale.obj
 0001:00016e90       ___lc_wcstolc              00417e90 f   libucrt:wsetlocale.obj
 0001:00016fbf       __configthreadlocale       00417fbf f   libucrt:wsetlocale.obj
 0001:00017050       __expandlocale             00418050 f   libucrt:wsetlocale.obj
 0001:000173c7       __wcscats                  004183c7 f   libucrt:wsetlocale.obj
 0001:00017408       __wsetlocale               00418408 f   libucrt:wsetlocale.obj
 0001:00017cd2       __query_new_mode           00418cd2 f   libucrt:new_mode.obj
 0001:00017cd8       __set_new_mode             00418cd8 f   libucrt:new_mode.obj
 0001:00017d07       ___p__commode              00418d07 f   libucrt:ncommode.obj
 0001:00017d0d       _terminate                 00418d0d f   libucrt:terminate.obj
 0001:00017d49       __controlfp_s              00418d49 f   libucrt:contrlfp.obj
 0001:00017da8       _strcpy_s                  00418da8 f   libucrt:strcpy_s.obj
 0001:00017e02       ??$?RV<lambda_3518db117f0e7cdb002338c5d3c47b6c>@@AAV<lambda_b2ea41f6bbb362cd97d94c6828d90b61>@@V<lambda_abdedf541bb04549bc734292b4a045d4>@@@?$__crt_seh_guarded_call@X@@QAEX$$QAV<lambda_3518db117f0e7cdb002338c5d3c47b6c>@@AAV<lambda_b2ea41f6bbb362cd97d94c6828d90b61>@@$$QAV<lambda_abdedf541bb04549bc734292b4a045d4>@@@Z 00418e02 f i libucrt:per_thread_data.obj
 0001:00017e52       ??$?RV<lambda_51b6e8b1eb166f2a3faf91f424b38130>@@AAV<lambda_6250bd4b2a391816dd638c3bf72b0bcb>@@V<lambda_0b5a4a3e68152e1d9b943535f5f47bed>@@@?$__crt_seh_guarded_call@X@@QAEX$$QAV<lambda_51b6e8b1eb166f2a3faf91f424b38130>@@AAV<lambda_6250bd4b2a391816dd638c3bf72b0bcb>@@$$QAV<lambda_0b5a4a3e68152e1d9b943535f5f47bed>@@@Z 00418e52 f i libucrt:per_thread_data.obj
 0001:00017eb3       ??$?RV<lambda_5b71d36f03204c0beab531769a5b5694>@@AAV<lambda_be2b3da3f62db62e9dad5dc70221a656>@@V<lambda_8f9ce462984622f9bf76b59e2aaaf805>@@@?$__crt_seh_guarded_call@X@@QAEX$$QAV<lambda_5b71d36f03204c0beab531769a5b5694>@@AAV<lambda_be2b3da3f62db62e9dad5dc70221a656>@@$$QAV<lambda_8f9ce462984622f9bf76b59e2aaaf805>@@@Z 00418eb3 f i libucrt:per_thread_data.obj
 0001:00017efe       ??$?RV<lambda_9df27f884b057bc3edfc946cb5b7cf47>@@AAV<lambda_e69574bed617af4e071282c136b37893>@@V<lambda_cc0d902bcbbeb830f749456577db4721>@@@?$__crt_seh_guarded_call@X@@QAEX$$QAV<lambda_9df27f884b057bc3edfc946cb5b7cf47>@@AAV<lambda_e69574bed617af4e071282c136b37893>@@$$QAV<lambda_cc0d902bcbbeb830f749456577db4721>@@@Z 00418efe f i libucrt:per_thread_data.obj
 0001:00017f46       ??$__acrt_lock_and_call@V<lambda_6250bd4b2a391816dd638c3bf72b0bcb>@@@@YAXW4__acrt_lock_id@@$$QAV<lambda_6250bd4b2a391816dd638c3bf72b0bcb>@@@Z 00418f46 f i libucrt:per_thread_data.obj
 0001:00017f6e       ??$__acrt_lock_and_call@V<lambda_b2ea41f6bbb362cd97d94c6828d90b61>@@@@YAXW4__acrt_lock_id@@$$QAV<lambda_b2ea41f6bbb362cd97d94c6828d90b61>@@@Z 00418f6e f i libucrt:per_thread_data.obj
 0001:00017f96       ??$__acrt_lock_and_call@V<lambda_be2b3da3f62db62e9dad5dc70221a656>@@@@YAXW4__acrt_lock_id@@$$QAV<lambda_be2b3da3f62db62e9dad5dc70221a656>@@@Z 00418f96 f i libucrt:per_thread_data.obj
 0001:00017fbe       ??$__acrt_lock_and_call@V<lambda_e69574bed617af4e071282c136b37893>@@@@YAXW4__acrt_lock_id@@$$QAV<lambda_e69574bed617af4e071282c136b37893>@@@Z 00418fbe f i libucrt:per_thread_data.obj
 0001:00018177       ___acrt_getptd             00419177 f   libucrt:per_thread_data.obj
 0001:000181fb       ___acrt_getptd_noexit      004191fb f   libucrt:per_thread_data.obj
 0001:00018280       ___acrt_initialize_ptd     00419280 f   libucrt:per_thread_data.obj
 0001:000182ac       ___acrt_uninitialize_ptd   004192ac f   libucrt:per_thread_data.obj
 0001:0001830c       ??$?RV<lambda_9227be29367c048ad7fd93a717dcb1a1>@@AAV<lambda_a463b7b0560cfcaf9b17f27c6ef46564>@@V<lambda_ccea11b5727ccf69be64f5f5d9a08d9f>@@@?$__crt_seh_guarded_call@H@@QAEH$$QAV<lambda_9227be29367c048ad7fd93a717dcb1a1>@@AAV<lambda_a463b7b0560cfcaf9b17f27c6ef46564>@@$$QAV<lambda_ccea11b5727ccf69be64f5f5d9a08d9f>@@@Z 0041930c f i libucrt:winapi_thunks.obj
 0001:00018390       ??$__acrt_lock_and_call@V<lambda_a463b7b0560cfcaf9b17f27c6ef46564>@@@@YAHW4__acrt_lock_id@@$$QAV<lambda_a463b7b0560cfcaf9b17f27c6ef46564>@@@Z 00419390 f i libucrt:winapi_thunks.obj
 0001:000184e9       ___acrt_AreFileApisANSI@0  004194e9 f   libucrt:winapi_thunks.obj
 0001:00018537       ___acrt_EnumSystemLocalesEx@16 00419537 f   libucrt:winapi_thunks.obj
 0001:000185a4       ___acrt_FlsAlloc@4         004195a4 f   libucrt:winapi_thunks.obj
 0001:000185fa       ___acrt_FlsFree@4          004195fa f   libucrt:winapi_thunks.obj
 0001:00018650       ___acrt_FlsGetValue@4      00419650 f   libucrt:winapi_thunks.obj
 0001:000186a6       ___acrt_FlsSetValue@8      004196a6 f   libucrt:winapi_thunks.obj
 0001:000186ff       ___acrt_GetLocaleInfoEx@16 004196ff f   libucrt:winapi_thunks.obj
 0001:00018769       ___acrt_GetUserDefaultLocaleName@8 00419769 f   libucrt:winapi_thunks.obj
 0001:000187d0       ___acrt_InitializeCriticalSectionEx@12 004197d0 f   libucrt:winapi_thunks.obj
 0001:00018832       ___acrt_IsValidLocaleName@4 00419832 f   libucrt:winapi_thunks.obj
 0001:00018895       ___acrt_LCIDToLocaleName@16 00419895 f   libucrt:winapi_thunks.obj
 0001:000188ff       ___acrt_LCMapStringEx@36   004198ff f   libucrt:winapi_thunks.obj
 0001:00018987       ___acrt_LocaleNameToLCID@8 00419987 f   libucrt:winapi_thunks.obj
 0001:000189e3       ___acrt_can_use_vista_locale_apis 004199e3 f   libucrt:winapi_thunks.obj
 0001:000189ef       ___acrt_initialize_winapi_thunks 004199ef f   libucrt:winapi_thunks.obj
 0001:00018a15       ___acrt_is_packaged_app    00419a15 f   libucrt:winapi_thunks.obj
 0001:00018a9c       ___acrt_uninitialize_winapi_thunks 00419a9c f   libucrt:winapi_thunks.obj
 0001:00018ad2       _iswctype                  00419ad2 f   libucrt:iswctype.obj
 0001:00018b31       __isctype_l                00419b31 f   libucrt:isctype.obj
 0001:00018c03       ___acrt_update_locale_info 00419c03 f   libucrt:locale_update.obj
 0001:00018c30       ___acrt_update_multibyte_info 00419c30 f   libucrt:locale_update.obj
 0001:00018c5d       __errcode                  00419c5d f   libucrt:fpexcept.obj
 0001:00018c91       __except1                  00419c91 f   libucrt:fpexcept.obj
 0001:00018d5f       __handle_exc               00419d5f f   libucrt:fpexcept.obj
 0001:00018f3f       __raise_exc                00419f3f f   libucrt:fpexcept.obj
 0001:00018f62       __raise_exc_ex             00419f62 f   libucrt:fpexcept.obj
 0001:00019253       __set_errno_from_matherr   0041a253 f   libucrt:fpexcept.obj
 0001:00019282       __umatherr                 0041a282 f   libucrt:fpexcept.obj
 0001:00019324       __decomp                   0041a324 f   libucrt:util.obj
 0001:000193f8       __set_exp                  0041a3f8 f   libucrt:util.obj
 0001:00019427       __sptype                   0041a427 f   libucrt:util.obj
 0001:00019485       ___set_fpsr_sse2           0041a485 f   libucrt:fpctrl.obj
 0001:000194fb       __clrfp                    0041a4fb f   libucrt:fpctrl.obj
 0001:0001950e       __ctrlfp                   0041a50e f   libucrt:fpctrl.obj
 0001:0001953a       __set_statfp               0041a53a f   libucrt:fpctrl.obj
 0001:00019595       __statfp                   0041a595 f   libucrt:fpctrl.obj
 0001:000195a7       __dsign                    0041a5a7 f   libucrt:nan.obj
 0001:000195b7       __fcloseall                0041a5b7 f   libucrt:closeall.obj
 0001:00019657       ___acrt_stdio_free_buffer_nolock 0041a657 f   libucrt:_freebuf.obj
 0001:00019801       ___acrt_initialize_lowio   0041a801 f   libucrt:ioinit.obj
 0001:00019857       ___acrt_uninitialize_lowio 0041a857 f   libucrt:ioinit.obj
 0001:00019883       ??$?RV<lambda_123407a5e2ac06da108355a851863b7a>@@AAV<lambda_2fe9b910cf3cbf4a0ab98a02ba45b3ec>@@V<lambda_ae55bdf541ad94d75914d381c370e64d>@@@?$__crt_seh_guarded_call@H@@QAEH$$QAV<lambda_123407a5e2ac06da108355a851863b7a>@@AAV<lambda_2fe9b910cf3cbf4a0ab98a02ba45b3ec>@@$$QAV<lambda_ae55bdf541ad94d75914d381c370e64d>@@@Z 0041a883 f i libucrt:close.obj
 0001:00019905       ??$__acrt_lowio_lock_fh_and_call@V<lambda_2fe9b910cf3cbf4a0ab98a02ba45b3ec>@@@@YAHH$$QAV<lambda_2fe9b910cf3cbf4a0ab98a02ba45b3ec>@@@Z 0041a905 f i libucrt:close.obj
 0001:0001992d       __close                    0041a92d f   libucrt:close.obj
 0001:000199ac       __close_nolock             0041a9ac f   libucrt:close.obj
 0001:00019a48       __fileno                   0041aa48 f   libucrt:fileno.obj
 0001:00019a6e       ?__acrt_stdio_allocate_stream@@YA?AV__crt_stdio_stream@@XZ 0041aa6e f   libucrt:stream.obj
 0001:00019acd       ?__acrt_stdio_free_stream@@YAXV__crt_stdio_stream@@@Z 0041aacd f   libucrt:stream.obj
 0001:00019bcb       ??$?RV<lambda_61cee617f5178ae960314fd4d05640a0>@@AAV<lambda_6978c1fb23f02e42e1d9e99668cc68aa>@@V<lambda_9cd88cf8ad10232537feb2133f08c833>@@@?$__crt_seh_guarded_call@H@@QAEH$$QAV<lambda_61cee617f5178ae960314fd4d05640a0>@@AAV<lambda_6978c1fb23f02e42e1d9e99668cc68aa>@@$$QAV<lambda_9cd88cf8ad10232537feb2133f08c833>@@@Z 0041abcb f i libucrt:commit.obj
 0001:00019c63       ??$__acrt_lowio_lock_fh_and_call@V<lambda_6978c1fb23f02e42e1d9e99668cc68aa>@@@@YAHH$$QAV<lambda_6978c1fb23f02e42e1d9e99668cc68aa>@@@Z 0041ac63 f i libucrt:commit.obj
 0001:00019c8b       __commit                   0041ac8b f   libucrt:commit.obj
 0001:0001a28a       __write                    0041b28a f   libucrt:write.obj
 0001:0001a375       __write_nolock             0041b375 f   libucrt:write.obj
 0001:0001a702       ___acrt_stdio_refill_and_read_narrow_nolock 0041b702 f   libucrt:_filbuf.obj
 0001:0001a70d       ??$__acrt_stdio_parse_mode@D@@YA?AU__acrt_stdio_stream_mode@@QBD@Z 0041b70d f i libucrt:openfile.obj
 0001:0001a9c4       ?__acrt_stdio_parse_mode_D@@YA_NAAU__acrt_stdio_stream_mode@@@Z 0041b9c4 f i libucrt:openfile.obj
 0001:0001a9df       ?__acrt_stdio_parse_mode_T@@YA_NAAU__acrt_stdio_stream_mode@@@Z 0041b9df f i libucrt:openfile.obj
 0001:0001a9fe       ?__acrt_stdio_parse_mode_b@@YA_NAAU__acrt_stdio_stream_mode@@@Z 0041b9fe f i libucrt:openfile.obj
 0001:0001aa1e       ?__acrt_stdio_parse_mode_c@@YA_NAAU__acrt_stdio_stream_mode@@AA_N@Z 0041ba1e f i libucrt:openfile.obj
 0001:0001aa40       ?__acrt_stdio_parse_mode_n@@YA_NAAU__acrt_stdio_stream_mode@@AA_N@Z 0041ba40 f i libucrt:openfile.obj
 0001:0001aa62       ?__acrt_stdio_parse_mode_plus@@YA_NAAU__acrt_stdio_stream_mode@@AA_N@Z 0041ba62 f i libucrt:openfile.obj
 0001:0001aa97       ?__acrt_stdio_parse_mode_t@@YA_NAAU__acrt_stdio_stream_mode@@@Z 0041ba97 f i libucrt:openfile.obj
 0001:0001aab7       __openfile                 0041bab7 f   libucrt:openfile.obj
 0001:0001ac9f       ___acrt_stdio_flush_and_write_narrow_nolock 0041bc9f f   libucrt:_flsbuf.obj
 0001:0001b192       __read                     0041c192 f   libucrt:read.obj
 0001:0001b2a5       __read_nolock              0041c2a5 f   libucrt:read.obj
 0001:0001b9a3       __lseek                    0041c9a3 f   libucrt:lseek.obj
 0001:0001b9ae       __lseeki64                 0041c9ae f   libucrt:lseek.obj
 0001:0001b9c9       __lseeki64_nolock          0041c9c9 f   libucrt:lseek.obj
 0001:0001b9e4       ___acrt_stdio_begin_temporary_buffering_nolock 0041c9e4 f   libucrt:_sftbuf.obj
 0001:0001ba99       ___acrt_stdio_end_temporary_buffering_nolock 0041ca99 f   libucrt:_sftbuf.obj
 0001:0001bad2       ___acrt_stdio_allocate_buffer_nolock 0041cad2 f   libucrt:_getbuf.obj
 0001:0001bb2f       _strtol                    0041cb2f f   libucrt:strtox.obj
 0001:0001bb5b       __mbtowc_l                 0041cb5b f   libucrt:mbtowc.obj
 0001:0001bc55       _mbtowc                    0041cc55 f   libucrt:mbtowc.obj
 0001:0001bc6f       __wctomb_s_l               0041cc6f f   libucrt:wctomb.obj
 0001:0001bd90       _wctomb_s                  0041cd90 f   libucrt:wctomb.obj
 0001:0001bdad       ?__acrt_fp_classify@@YA?AW4__acrt_fp_class@@ABN@Z 0041cdad f i libucrt:cvt.obj
 0001:0001be19       ?__acrt_fp_is_negative@@YA_NABN@Z 0041ce19 f i libucrt:cvt.obj
 0001:0001c678       ___acrt_fp_format          0041d678 f   libucrt:cvt.obj
 0001:0001c7c2       __get_printf_count_output  0041d7c2 f   libucrt:printf_count_output.obj
 0001:0001c7d7       ___acrt_initialize_heap    0041d7d7 f   libucrt:heap_handle.obj
 0001:0001c7e8       ___acrt_uninitialize_heap  0041d7e8 f   libucrt:heap_handle.obj
 0001:0001c8ed       ___acrt_GetLocaleInfoA     0041d8ed f   libucrt:getlocaleinfoa.obj
 0001:0001ca9f       ___acrt_GetStringTypeA     0041da9f f   libucrt:getstringtypea.obj
 0001:0001cdd9       ___acrt_LCMapStringA       0041ddd9 f   libucrt:lcmapstringa.obj
 0001:0001cf9d       __mbstowcs_s_l             0041df9d f   libucrt:mbstowcs.obj
 0001:0001d080       _mbstowcs_s                0041e080 f   libucrt:mbstowcs.obj
 0001:0001d321       __wcstombs_s_l             0041e321 f   libucrt:wcstombs.obj
 0001:0001d3ee       ??$?RV<lambda_a048d3beccc847880fc8490e18b82769>@@AAV<lambda_ec61778202f4f5fc7e7711acc23c3bca>@@V<lambda_f7496a158712204296dd6628a163878e>@@@?$__crt_seh_guarded_call@P6AXH@Z@@QAEP6AXH@Z$$QAV<lambda_a048d3beccc847880fc8490e18b82769>@@AAV<lambda_ec61778202f4f5fc7e7711acc23c3bca>@@$$QAV<lambda_f7496a158712204296dd6628a163878e>@@@Z 0041e3ee f i libucrt:signal.obj
 0001:0001d448       ??$__acrt_lock_and_call@V<lambda_ec61778202f4f5fc7e7711acc23c3bca>@@@@YAP6AXH@ZW4__acrt_lock_id@@$$QAV<lambda_ec61778202f4f5fc7e7711acc23c3bca>@@@Z 0041e448 f i libucrt:signal.obj
 0001:0001d4da       ___acrt_get_sigabrt_handler 0041e4da f   libucrt:signal.obj
 0001:0001d4f1       ___acrt_initialize_signal_handlers 0041e4f1 f   libucrt:signal.obj
 0001:0001d52c       ___fpecode                 0041e52c f   libucrt:signal.obj
 0001:0001d535       _raise                     0041e535 f   libucrt:signal.obj
 0001:0001d73d       __fpclass                  0041e73d f   libucrt:ieeemisc.obj
 0001:0001d7e1       ___acrt_initialize_sse2    0041e7e1 f   libucrt:mathfcns.obj
 0001:0001d7f0       __CIpow_pentium4           0041e7f0 f   libucrt:pow_pentium4.obj
 0001:0001d809       __pow_pentium4             0041e809     libucrt:pow_pentium4.obj
 0001:0001e321       __fFEXP                    0041f321     libucrt:87tran.obj
 0001:0001e378       __rtinfpopse               0041f378     libucrt:87tran.obj
 0001:0001e37a       __rtinfnpopse              0041f37a     libucrt:87tran.obj
 0001:0001e38a       __fFLN                     0041f38a     libucrt:87tran.obj
 0001:0001e43f       __rtinfpop                 0041f43f     libucrt:87tran.obj
 0001:0001e441       __rtinfnpop                0041f441     libucrt:87tran.obj
 0001:0001e45e       __ffexpm1                  0041f45e     libucrt:87tran.obj
 0001:0001e510       __trandisp1                0041f510 f   libucrt:87disp.obj
 0001:0001e577       __trandisp2                0041f577 f   libucrt:87disp.obj
 0001:0001e603       __rttospopde               0041f603     libucrt:87disp.obj
 0001:0001e608       __rttospop                 0041f608     libucrt:87disp.obj
 0001:0001e60a       __rtnospop                 0041f60a     libucrt:87disp.obj
 0001:0001e60c       __rttosnpop                0041f60c     libucrt:87disp.obj
 0001:0001e60d       __rtnospopde               0041f60d     libucrt:87disp.obj
 0001:0001e614       __rtzeropop                0041f614     libucrt:87disp.obj
 0001:0001e616       __rtzeronpop               0041f616     libucrt:87disp.obj
 0001:0001e61b       __rtzerospop               0041f61b     libucrt:87disp.obj
 0001:0001e628       __rtonepop                 0041f628     libucrt:87disp.obj
 0001:0001e62a       __rtonenpop                0041f62a     libucrt:87disp.obj
 0001:0001e62f       __tosnan1                  0041f62f     libucrt:87disp.obj
 0001:0001e65a       __nosnan2                  0041f65a     libucrt:87disp.obj
 0001:0001e65c       __tosnan2                  0041f65c     libucrt:87disp.obj
 0001:0001e684       __nan2                     0041f684     libucrt:87disp.obj
 0001:0001e6c3       __rtindfpop                0041f6c3     libucrt:87disp.obj
 0001:0001e6c5       __rtindfnpop               0041f6c5     libucrt:87disp.obj
 0001:0001e6d6       __rttosnpopde              0041f6d6     libucrt:87disp.obj
 0001:0001e6e0       __rtatan2inf               0041f6e0     libucrt:87disp.obj
 0001:0001e6fd       __rtchsifneg               0041f6fd     libucrt:87disp.obj
 0001:0001e710       __startTwoArgErrorHandling 0041f710 f   libucrt:genexcep.obj
 0001:0001e727       __startOneArgErrorHandling 0041f727 f   libucrt:genexcep.obj
 0001:0001e770       __twoToTOS                 0041f770 f   libucrt:common.obj
 0001:0001e785       __load_CW                  0041f785 f   libucrt:common.obj
 0001:0001e79c       __convertTOStoQNaN         0041f79c f   libucrt:common.obj
 0001:0001e7b5       __fload_withFB             0041f7b5 f   libucrt:common.obj
 0001:0001e7f8       __checkTOS_withFB          0041f7f8 f   libucrt:common.obj
 0001:0001e80e       __fast_exit                0041f80e f   libucrt:common.obj
 0001:0001e81b       __math_exit                0041f81b f   libucrt:common.obj
 0001:0001e845       __check_overflow_exit      0041f845 f   libucrt:common.obj
 0001:0001e859       __check_range_exit         0041f859 f   libucrt:common.obj
 0001:0001e8fc       __d_inttype                0041f8fc f   libucrt:powhlp.obj
 0001:0001e966       __powhlp                   0041f966 f   libucrt:powhlp.obj
 0001:0001ea91       __wcsicmp                  0041fa91 f   libucrt:wcsicmp.obj
 0001:0001eb26       __wcsicmp_l                0041fb26 f   libucrt:wcsicmp.obj
 0001:0001ec06       ___acrt_initialize_timeset 0041fc06 f   libucrt:timeset.obj
 0001:0001ec3d       __isleadbyte_l             0041fc3d f i libucrt:_wctype.obj
 0001:0001f0af       ??1?$argument_list@_W@?A0xb0e4b824@@QAE@XZ 004200af f i libucrt:argv_wildcards.obj
 0001:0001f0d4       ?append@?$argument_list@_W@?A0xb0e4b824@@QAEHQA_W@Z 004200d4 f i libucrt:argv_wildcards.obj
 0001:0001f109       ?expand_if_necessary@?$argument_list@_W@?A0xb0e4b824@@AAEHXZ 00420109 f i libucrt:argv_wildcards.obj
 0001:0001f190       ___acrt_expand_wide_argv_wildcards 00420190 f   libucrt:argv_wildcards.obj
 0001:0001f19b       ??$?RV<lambda_978dc153c237d78434369da87b74ff60>@@AAV<lambda_ad1ced32f4ac17aa236e5ef05d6b3b7c>@@V<lambda_4a8533e2866a575feecb8298ce776b0d>@@@?$__crt_seh_guarded_call@X@@QAEX$$QAV<lambda_978dc153c237d78434369da87b74ff60>@@AAV<lambda_ad1ced32f4ac17aa236e5ef05d6b3b7c>@@$$QAV<lambda_4a8533e2866a575feecb8298ce776b0d>@@@Z 0042019b f i libucrt:mbctype.obj
 0001:0001f1de       ??$__acrt_lock_and_call@V<lambda_ad1ced32f4ac17aa236e5ef05d6b3b7c>@@@@YAXW4__acrt_lock_id@@$$QAV<lambda_ad1ced32f4ac17aa236e5ef05d6b3b7c>@@@Z 004201de f i libucrt:mbctype.obj
 0001:0001f675       ___acrt_initialize_multibyte 00420675 f   libucrt:mbctype.obj
 0001:0001f693       ___acrt_update_thread_multibyte_data 00420693 f   libucrt:mbctype.obj
 0001:0001f735       __setmbcp_nolock           00420735 f   libucrt:mbctype.obj
 0001:0001f926       ___acrt_initialize_command_line 00420926 f   libucrt:argv_data.obj
 0001:0001f976       ___dcrt_get_wide_environment_from_os 00420976 f   libucrt:get_environment_from_os.obj
 0001:0001f9c6       __recalloc                 004209c6 f   libucrt:recalloc.obj
 0001:0001f9d1       __recalloc_base            004209d1 f   libucrt:recalloc.obj
 0001:0001fa3e       ___acrt_execute_initializers 00420a3e f   libucrt:shared_initialization.obj
 0001:0001fac1       ___acrt_execute_uninitializers 00420ac1 f   libucrt:shared_initialization.obj
 0001:0001fb0e       _wcscat_s                  00420b0e f   libucrt:wcscat_s.obj
 0001:0001fc50       _wcsncpy_s                 00420c50 f   libucrt:wcsncpy_s.obj
 0001:0001fc5b       ___acrt_lowio_create_handle_array 00420c5b f   libucrt:osfinfo.obj
 0001:0001fcd5       ___acrt_lowio_destroy_handle_array 00420cd5 f   libucrt:osfinfo.obj
 0001:0001fd0a       ___acrt_lowio_ensure_fh_exists 00420d0a f   libucrt:osfinfo.obj
 0001:0001fda2       ___acrt_lowio_lock_fh      00420da2 f   libucrt:osfinfo.obj
 0001:0001fdc5       ___acrt_lowio_set_os_handle 00420dc5 f   libucrt:osfinfo.obj
 0001:0001fe59       ___acrt_lowio_unlock_fh    00420e59 f   libucrt:osfinfo.obj
 0001:0001fe7c       __alloc_osfhnd             00420e7c f   libucrt:osfinfo.obj
 0001:0001ff8e       __free_osfhnd              00420f8e f   libucrt:osfinfo.obj
 0001:0002001f       __get_osfhandle            0042101f f   libucrt:osfinfo.obj
 0001:00020089       ___acrt_locale_free_monetary 00421089 f   libucrt:initmon.obj
 0001:00020187       ___acrt_locale_initialize_monetary 00421187 f   libucrt:initmon.obj
 0001:00020543       ___acrt_locale_free_numeric 00421543 f   libucrt:initnum.obj
 0001:000205ac       ___acrt_locale_initialize_numeric 004215ac f   libucrt:initnum.obj
 0001:00020a81       ___acrt_locale_free_time   00421a81 f   libucrt:inittime.obj
 0001:00020b65       ___acrt_locale_initialize_time 00421b65 f   libucrt:inittime.obj
 0001:00020be4       _wcscspn                   00421be4 f   libucrt:wcscspn.obj
 0001:00020c34       _wcsncmp                   00421c34 f   libucrt:wcsncmp.obj
 0001:00020c6e       _wcspbrk                   00421c6e f   libucrt:wcspbrk.obj
 0001:00020cb3       ___acrt_add_locale_ref     00421cb3 f   libucrt:locale_refcounting.obj
 0001:00020d30       ___acrt_free_locale        00421d30 f   libucrt:locale_refcounting.obj
 0001:00020e7a       ___acrt_locale_add_lc_time_reference 00421e7a f   libucrt:locale_refcounting.obj
 0001:00020ea3       ___acrt_locale_free_lc_time_if_unreferenced 00421ea3 f   libucrt:locale_refcounting.obj
 0001:00020ed3       ___acrt_locale_release_lc_time_reference 00421ed3 f   libucrt:locale_refcounting.obj
 0001:00020efc       ___acrt_release_locale_ref 00421efc f   libucrt:locale_refcounting.obj
 0001:00020f7d       ___acrt_update_thread_locale_data 00421f7d f   libucrt:locale_refcounting.obj
 0001:00020ff4       __updatetlocinfoEx_nolock  00421ff4 f   libucrt:locale_refcounting.obj
 0001:00021742       ___acrt_get_qualified_locale 00422742 f   libucrt:get_qualified_locale.obj
 0001:0002207a       ___acrt_get_qualified_locale_downlevel 0042307a f   libucrt:getqloc_downlevel.obj
 0001:0002232c       __clearfp                  0042332c f   libucrt:ieee87.obj
 0001:0002240a       __control87                0042340a f   libucrt:ieee87.obj
 0001:00022861       ___acrt_DownlevelLCIDToLocaleName 00423861 f   libucrt:lcidtoname_downlevel.obj
 0001:0002290b       ___acrt_DownlevelLocaleNameToLCID 0042390b f   libucrt:lcidtoname_downlevel.obj
 0001:00022937       __isatty                   00423937 f   libucrt:isatty.obj
 0001:0002298d       __putwch_nolock            0042398d f   libucrt:putwch.obj
 0001:000229d2       __wcsnicmp                 004239d2 f   libucrt:wcsnicmp.obj
 0001:00022a8a       __wcsnicmp_l               00423a8a f   libucrt:wcsnicmp.obj
 0001:00022b90       _strncmp                   00423b90 f   libucrt:strncmp.obj
 0001:00022c08       __strnicmp                 00423c08 f   libucrt:strnicmp.obj
 0001:00022c74       __strnicmp_l               00423c74 f   libucrt:strnicmp.obj
 0001:00023305       __sopen_nolock             00424305 f   libucrt:open.obj
 0001:00023356       __sopen_s                  00424356 f   libucrt:open.obj
 0001:00023376       __wsopen_nolock            00424376 f   libucrt:open.obj
 0001:0002369f       ___acrt_fp_strflt_to_string 0042469f f   libucrt:_fptostr.obj
 0001:0002375b       ??0scoped_fp_state_reset@?A0x48fbfdd4@@QAE@XZ 0042475b f i libucrt:cfout.obj
 0001:00023785       ___acrt_fltout             00424785 f   libucrt:cfout.obj
 0001:00024bd2       _strncpy_s                 00425bd2 f   libucrt:strncpy_s.obj
 0001:00024e80       __getfpcontrolword         00425e80 f   libucrt:_fenvutils.obj
 0001:00024ec3       __getfpstatusword          00425ec3 f   libucrt:_fenvutils.obj
 0001:00024f6b       __setfpcontrolword         00425f6b f   libucrt:_fenvutils.obj
 0001:00024feb       __setfpstatusword          00425feb f   libucrt:_fenvutils.obj
 0001:0002506b       ___libm_error_support      0042606b f   libucrt:libm_error.obj
 0001:00025283       __87except                 00426283 f   libucrt:87except.obj
 0001:0002538e       __frnd                     0042638e f   libucrt:frnd.obj
 0001:000253a4       __towlower_l               004263a4 f   libucrt:towlower.obj
 0001:00025550       _qsort                     00426550 f   libucrt:qsort.obj
 0001:000258f0       _strpbrk                   004268f0 f   libucrt:strpbrk.obj
 0001:0002593f       __msize                    0042693f f   libucrt:msize.obj
 0001:00025a5f       __itow_s                   00426a5f f   libucrt:xtoa.obj
 0001:00025a94       ___dcrt_lowio_initialize_console_output 00426a94 f   libucrt:initcon.obj
 0001:00025ab3       ___dcrt_terminate_console_output 00426ab3 f   libucrt:initcon.obj
 0001:00025ad0       ___ascii_strnicmp          00426ad0 f   libucrt:_strnicm.obj
 0001:00025b31       ___acrt_copy_path_to_wide_string 00426b31 f   libucrt:string_utilities.obj
 0001:00025bf8       __chsize_nolock            00426bf8 f   libucrt:chsize.obj
 0001:00025d89       _fegetenv                  00426d89 f   libucrt:fegetenv.obj
 0001:00025da6       _fesetenv                  00426da6 f   libucrt:fesetenv.obj
 0001:00025def       _feholdexcept              00426def f   libucrt:feholdexcept.obj
 0001:00025e40       _log10                     00426e40 f   libucrt:log10.obj
 0001:00025e80       __CIlog10                  00426e80 f   libucrt:log10.obj
 0001:00025ebb       __CIlog10_default          00426ebb f   libucrt:log10.obj
 0001:00025ecf       __log10_default            00426ecf     libucrt:log10.obj
 0001:00025f90       _ceil                      00426f90 f   libucrt:ceil_pentium4.obj
 0001:00025fd0       __ceil_pentium4            00426fd0 f   libucrt:ceil_pentium4.obj
 0001:000260ad       ___acrt_LCMapStringW       004270ad f   libucrt:lcmapstringw.obj
 0001:000260f0       __CIlog10_pentium4         004270f0 f   libucrt:log10_pentium4.obj
 0001:00026108       __log10_pentium4           00427108     libucrt:log10_pentium4.obj
 0001:00026380       __ceil_default             00427380 f   libucrt:ceil.obj
 0001:00026440       __FindPESection            00427440 f   LIBCMT:pesect.obj
 0001:00026490       __IsNonwritableInCurrentImage 00427490 f   LIBCMT:pesect.obj
 0001:00026550       __ValidateImageBase        00427550 f   LIBCMT:pesect.obj
 0001:00026590       __aulldvrm                 00427590 f   LIBCMT:ulldvrm.obj
 0001:00026630       __SEH_prolog4_GS           00427630 f   LIBCMT:_sehprolg4gs_.obj
 0001:00026679       __SEH_epilog4_GS           00427679 f   LIBCMT:_sehprolg4gs_.obj
 0001:00026690       __alldiv                   00427690 f   LIBCMT:lldiv.obj
 0001:00026740       __allshl                   00427740 f   LIBCMT:llshl.obj
 0001:00026760       __aullshr                  00427760 f   LIBCMT:ullshr.obj
 0001:00026780       __alldvrm                  00427780 f   LIBCMT:lldvrm.obj
 0001:00026860       __ftol2_sse                00427860 f   LIBCMT:_ftol2_.obj
 0001:00026869       __ftol2_pentium4           00427869 f   LIBCMT:_ftol2_.obj
 0001:0002687c       __ftol2_sse_excpt          0042787c f   LIBCMT:_ftol2_.obj
 0001:000268a0       __ftol2                    004278a0 f   LIBCMT:_ftol2_.obj
 0001:00026916       _RtlUnwind@16              00427916 f   kernel32:KERNEL32.dll
 0001:00026920       _strrchr                   00427920 f   libvcruntime:strrchr.obj
 0001:00026a57       _wcschr                    00427a57 f   libvcruntime:wcschr.obj
 0001:00026d30       ??__F_Static@?1???$_Immortalize@V_Iostream_error_category@std@@@std@@YAAAV_Iostream_error_category@0@XZ@YAXXZ 00427d30 f i implant.obj
 0002:00000000       __imp__GetAdaptersInfo@8   00428000     iphlpapi:IPHLPAPI.DLL
 0002:00000004       \177IPHLPAPI_NULL_THUNK_DATA 00428004     iphlpapi:IPHLPAPI.DLL
 0002:00000008       __imp__WriteConsoleW@20    00428008     kernel32:KERNEL32.dll
 0002:0000000c       __imp__SetStdHandle@8      0042800c     kernel32:KERNEL32.dll
 0002:00000010       __imp__HeapSize@12         00428010     kernel32:KERNEL32.dll
 0002:00000014       __imp__CreateFileW@28      00428014     kernel32:KERNEL32.dll
 0002:00000018       __imp__CloseHandle@4       00428018     kernel32:KERNEL32.dll
 0002:0000001c       __imp__GetLastError@0      0042801c     kernel32:KERNEL32.dll
 0002:00000020       __imp__Sleep@4             00428020     kernel32:KERNEL32.dll
 0002:00000024       __imp__CreateProcessA@40   00428024     kernel32:KERNEL32.dll
 0002:00000028       __imp__GetVolumeInformationA@32 00428028     kernel32:KERNEL32.dll
 0002:0000002c       __imp__WideCharToMultiByte@32 0042802c     kernel32:KERNEL32.dll
 0002:00000030       __imp__EnterCriticalSection@4 00428030     kernel32:KERNEL32.dll
 0002:00000034       __imp__LeaveCriticalSection@4 00428034     kernel32:KERNEL32.dll
 0002:00000038       __imp__DeleteCriticalSection@4 00428038     kernel32:KERNEL32.dll
 0002:0000003c       __imp__MultiByteToWideChar@24 0042803c     kernel32:KERNEL32.dll
 0002:00000040       __imp__EncodePointer@4     00428040     kernel32:KERNEL32.dll
 0002:00000044       __imp__DecodePointer@4     00428044     kernel32:KERNEL32.dll
 0002:00000048       __imp__SetLastError@4      00428048     kernel32:KERNEL32.dll
 0002:0000004c       __imp__InitializeCriticalSectionAndSpinCount@8 0042804c     kernel32:KERNEL32.dll
 0002:00000050       __imp__CreateEventW@16     00428050     kernel32:KERNEL32.dll
 0002:00000054       __imp__TlsAlloc@0          00428054     kernel32:KERNEL32.dll
 0002:00000058       __imp__TlsGetValue@4       00428058     kernel32:KERNEL32.dll
 0002:0000005c       __imp__TlsSetValue@8       0042805c     kernel32:KERNEL32.dll
 0002:00000060       __imp__TlsFree@4           00428060     kernel32:KERNEL32.dll
 0002:00000064       __imp__GetSystemTimeAsFileTime@4 00428064     kernel32:KERNEL32.dll
 0002:00000068       __imp__GetModuleHandleW@4  00428068     kernel32:KERNEL32.dll
 0002:0000006c       __imp__GetProcAddress@8    0042806c     kernel32:KERNEL32.dll
 0002:00000070       __imp__LCMapStringW@24     00428070     kernel32:KERNEL32.dll
 0002:00000074       __imp__GetLocaleInfoW@16   00428074     kernel32:KERNEL32.dll
 0002:00000078       __imp__GetStringTypeW@16   00428078     kernel32:KERNEL32.dll
 0002:0000007c       __imp__GetCPInfo@8         0042807c     kernel32:KERNEL32.dll
 0002:00000080       __imp__UnhandledExceptionFilter@4 00428080     kernel32:KERNEL32.dll
 0002:00000084       __imp__SetUnhandledExceptionFilter@4 00428084     kernel32:KERNEL32.dll
 0002:00000088       __imp__GetCurrentProcess@0 00428088     kernel32:KERNEL32.dll
 0002:0000008c       __imp__TerminateProcess@8  0042808c     kernel32:KERNEL32.dll
 0002:00000090       __imp__IsProcessorFeaturePresent@4 00428090     kernel32:KERNEL32.dll
 0002:00000094       __imp__SetEvent@4          00428094     kernel32:KERNEL32.dll
 0002:00000098       __imp__ResetEvent@4        00428098     kernel32:KERNEL32.dll
 0002:0000009c       __imp__WaitForSingleObjectEx@12 0042809c     kernel32:KERNEL32.dll
 0002:000000a0       __imp__IsDebuggerPresent@0 004280a0     kernel32:KERNEL32.dll
 0002:000000a4       __imp__GetStartupInfoW@4   004280a4     kernel32:KERNEL32.dll
 0002:000000a8       __imp__QueryPerformanceCounter@4 004280a8     kernel32:KERNEL32.dll
 0002:000000ac       __imp__GetCurrentProcessId@0 004280ac     kernel32:KERNEL32.dll
 0002:000000b0       __imp__GetCurrentThreadId@0 004280b0     kernel32:KERNEL32.dll
 0002:000000b4       __imp__InitializeSListHead@4 004280b4     kernel32:KERNEL32.dll
 0002:000000b8       __imp__SetEndOfFile@4      004280b8     kernel32:KERNEL32.dll
 0002:000000bc       __imp__RaiseException@16   004280bc     kernel32:KERNEL32.dll
 0002:000000c0       __imp__RtlUnwind@16        004280c0     kernel32:KERNEL32.dll
 0002:000000c4       __imp__FreeLibrary@4       004280c4     kernel32:KERNEL32.dll
 0002:000000c8       __imp__LoadLibraryExW@12   004280c8     kernel32:KERNEL32.dll
 0002:000000cc       __imp__ExitProcess@4       004280cc     kernel32:KERNEL32.dll
 0002:000000d0       __imp__GetModuleHandleExW@12 004280d0     kernel32:KERNEL32.dll
 0002:000000d4       __imp__ReadFile@20         004280d4     kernel32:KERNEL32.dll
 0002:000000d8       __imp__HeapAlloc@12        004280d8     kernel32:KERNEL32.dll
 0002:000000dc       __imp__HeapFree@12         004280dc     kernel32:KERNEL32.dll
 0002:000000e0       __imp__HeapReAlloc@16      004280e0     kernel32:KERNEL32.dll
 0002:000000e4       __imp__GetModuleFileNameW@12 004280e4     kernel32:KERNEL32.dll
 0002:000000e8       __imp__GetStdHandle@4      004280e8     kernel32:KERNEL32.dll
 0002:000000ec       __imp__WriteFile@20        004280ec     kernel32:KERNEL32.dll
 0002:000000f0       __imp__GetACP@0            004280f0     kernel32:KERNEL32.dll
 0002:000000f4       __imp__IsValidLocale@8     004280f4     kernel32:KERNEL32.dll
 0002:000000f8       __imp__GetUserDefaultLCID@0 004280f8     kernel32:KERNEL32.dll
 0002:000000fc       __imp__EnumSystemLocalesW@8 004280fc     kernel32:KERNEL32.dll
 0002:00000100       __imp__GetFileType@4       00428100     kernel32:KERNEL32.dll
 0002:00000104       __imp__FlushFileBuffers@4  00428104     kernel32:KERNEL32.dll
 0002:00000108       __imp__GetConsoleCP@0      00428108     kernel32:KERNEL32.dll
 0002:0000010c       __imp__GetConsoleMode@8    0042810c     kernel32:KERNEL32.dll
 0002:00000110       __imp__ReadConsoleW@20     00428110     kernel32:KERNEL32.dll
 0002:00000114       __imp__SetFilePointerEx@20 00428114     kernel32:KERNEL32.dll
 0002:00000118       __imp__GetProcessHeap@0    00428118     kernel32:KERNEL32.dll
 0002:0000011c       __imp__FindClose@4         0042811c     kernel32:KERNEL32.dll
 0002:00000120       __imp__FindFirstFileExW@24 00428120     kernel32:KERNEL32.dll
 0002:00000124       __imp__FindNextFileW@8     00428124     kernel32:KERNEL32.dll
 0002:00000128       __imp__IsValidCodePage@4   00428128     kernel32:KERNEL32.dll
 0002:0000012c       __imp__GetOEMCP@0          0042812c     kernel32:KERNEL32.dll
 0002:00000130       __imp__GetCommandLineA@0   00428130     kernel32:KERNEL32.dll
 0002:00000134       __imp__GetCommandLineW@0   00428134     kernel32:KERNEL32.dll
 0002:00000138       __imp__GetEnvironmentStringsW@0 00428138     kernel32:KERNEL32.dll
 0002:0000013c       __imp__FreeEnvironmentStringsW@4 0042813c     kernel32:KERNEL32.dll
 0002:00000140       \177KERNEL32_NULL_THUNK_DATA 00428140     kernel32:KERNEL32.dll
 0002:00000144       __imp__HttpEndRequestA@16  00428144     wininet:WININET.dll
 0002:00000148       __imp__HttpSendRequestA@20 00428148     wininet:WININET.dll
 0002:0000014c       __imp__HttpOpenRequestA@32 0042814c     wininet:WININET.dll
 0002:00000150       __imp__InternetQueryDataAvailable@16 00428150     wininet:WININET.dll
 0002:00000154       __imp__InternetReadFile@16 00428154     wininet:WININET.dll
 0002:00000158       __imp__InternetConnectA@32 00428158     wininet:WININET.dll
 0002:0000015c       __imp__InternetCloseHandle@4 0042815c     wininet:WININET.dll
 0002:00000160       __imp__InternetOpenA@20    00428160     wininet:WININET.dll
 0002:00000164       \177WININET_NULL_THUNK_DATA 00428164     wininet:WININET.dll
 0002:00000168       ___guard_check_icall_fptr  00428168     LIBCMT:guard_support.obj
 0002:0000016c       ___xc_a                    0042816c     LIBCMT:initializers.obj
 0002:000001b4       ___xc_z                    004281b4     LIBCMT:initializers.obj
 0002:000001b8       ___xi_a                    004281b8     LIBCMT:initializers.obj
 0002:000001cc       ___acrt_stdio_initializer  004281cc     libucrt:stdio_initializer.obj
 0002:000001d0       ___acrt_tran_sse2_initializer 004281d0     libucrt:sse2_initializer.obj
 0002:000001d4       ___acrt_timeset_initializer 004281d4     libucrt:timeset_initializer.obj
 0002:000001d8       ___acrt_multibyte_initializer 004281d8     libucrt:multibyte_initializer.obj
 0002:000001dc       ___xi_z                    004281dc     LIBCMT:initializers.obj
 0002:000001e0       ___xl_a                    004281e0     LIBCMT:tlssup.obj
 0002:000001e4       ___xl_z                    004281e4     LIBCMT:tlssup.obj
 0002:000001e8       ___xp_a                    004281e8     LIBCMT:initializers.obj
 0002:000001ec       ___acrt_locale_terminator  004281ec     libucrt:locale_initializer.obj
 0002:000001f0       ___dcrt_console_output_terminator 004281f0     libucrt:console_output_initializer.obj
 0002:000001f4       ___acrt_stdio_terminator   004281f4     libucrt:stdio_initializer.obj
 0002:000001f8       ___xp_z                    004281f8     LIBCMT:initializers.obj
 0002:000001fc       ___xt_a                    004281fc     LIBCMT:initializers.obj
 0002:00000200       ___xt_z                    00428200     LIBCMT:initializers.obj
 0002:00000634       ??_7exception@std@@6B@     00428634     implant.obj
 0002:0000063c       ??_C@_0BC@EOODALEL@Unknown?5exception?$AA@ 0042863c     implant.obj
 0002:00000650       ?npos@?$basic_string@DU?$char_traits@D@std@@V?$allocator@D@2@@std@@2IB 00428650     implant.obj
 0002:00000658       ??_7runtime_error@std@@6B@ 00428658     implant.obj
 0002:00000664       ??_7bad_cast@std@@6B@      00428664     implant.obj
 0002:0000066c       ??_C@_08EPJLHIJG@bad?5cast?$AA@ 0042866c     implant.obj
 0002:00000678       ??_C@_0BA@ELKIONDK@bad?5locale?5name?$AA@ 00428678     implant.obj
 0002:00000688       ??_C@_05LAPONLG@false?$AA@ 00428688     implant.obj
 0002:00000690       ??_C@_04LOAJBDKD@true?$AA@ 00428690     implant.obj
 0002:0000069c       ??_7_Facet_base@std@@6B@   0042869c     implant.obj
 0002:000006ac       ??_7facet@locale@std@@6B@  004286ac     implant.obj
 0002:000006b8       ??_C@_00CNPNBAHC@?$AA@     004286b8     implant.obj
 0002:000006c0       ??_7codecvt_base@std@@6B@  004286c0     implant.obj
 0002:000006dc       ??_7ctype_base@std@@6B@    004286dc     implant.obj
 0002:000006ec       ??_7?$ctype@D@std@@6B@     004286ec     implant.obj
 0002:0000071c       ??_7error_category@std@@6B@ 0042871c     implant.obj
 0002:00000738       ??_7_System_error@std@@6B@ 00428738     implant.obj
 0002:00000740       ??_C@_02LMMGGCAJ@?3?5?$AA@ 00428740     implant.obj
 0002:00000748       ??_7system_error@std@@6B@  00428748     implant.obj
 0002:00000754       ??_7_Generic_error_category@std@@6B@ 00428754     implant.obj
 0002:0000076c       ??_C@_07DCLBNMLN@generic?$AA@ 0042876c     implant.obj
 0002:00000778       ??_7_Iostream_error_category@std@@6B@ 00428778     implant.obj
 0002:00000790       ??_C@_08LLGCOLLL@iostream?$AA@ 00428790     implant.obj
 0002:0000079c       ??_C@_0BG@PADBLCHM@iostream?5stream?5error?$AA@ 0042879c     implant.obj
 0002:000007b8       ??_7failure@ios_base@std@@6B@ 004287b8     implant.obj
 0002:000007c4       ??_7ios_base@std@@6B@      004287c4     implant.obj
 0002:000007c8       ??_C@_0BF@PHHKMMFD@ios_base?3?3badbit?5set?$AA@ 004287c8     implant.obj
 0002:000007e0       ??_C@_0BG@FMKFHCIL@ios_base?3?3failbit?5set?$AA@ 004287e0     implant.obj
 0002:000007f8       ??_C@_0BF@OOHOMBOF@ios_base?3?3eofbit?5set?$AA@ 004287f8     implant.obj
 0002:00000814       ??_7?$basic_ios@DU?$char_traits@D@std@@@std@@6B@ 00428814     implant.obj
 0002:0000081c       ??_7?$basic_istream@DU?$char_traits@D@std@@@std@@6B@ 0042881c     implant.obj
 0002:00000820       ??_8?$basic_istream@DU?$char_traits@D@std@@@std@@7B@ 00428820     implant.obj
 0002:0000082c       ??_7?$basic_streambuf@DU?$char_traits@D@std@@@std@@6B@ 0042882c     implant.obj
 0002:0000086c       ??_7?$basic_filebuf@DU?$char_traits@D@std@@@std@@6B@ 0042886c     implant.obj
 0002:000008ac       ??_7?$basic_ifstream@DU?$char_traits@D@std@@@std@@6B@ 004288ac     implant.obj
 0002:000008b0       ??_8?$basic_ifstream@DU?$char_traits@D@std@@@std@@7B@ 004288b0     implant.obj
 0002:000008bc       ??_7?$codecvt@DDU_Mbstatet@@@std@@6B@ 004288bc     implant.obj
 0002:000008e8       ??_7?$num_put@DV?$ostreambuf_iterator@DU?$char_traits@D@std@@@std@@@std@@6B@ 004288e8     implant.obj
 0002:00000914       ??_C@_02BBAHNLBA@?$CFp?$AA@ 00428914     implant.obj
 0002:00000918       ??_C@_02CLHGNPPK@Lu?$AA@   00428918     implant.obj
 0002:0000091c       ??_C@_02HIKPPMOK@Ld?$AA@   0042891c     implant.obj
 0002:00000920       ??_C@_02BDDLJJBK@lu?$AA@   00428920     implant.obj
 0002:00000924       ??_C@_02EAOCLKAK@ld?$AA@   00428924     implant.obj
 0002:0000092c       ??_7?$numpunct@D@std@@6B@  0042892c     implant.obj
 0002:0000094c       ??_C@_0BD@OLBABOEK@vector?$DMT?$DO?5too?5long?$AA@ 0042894c     implant.obj
 0002:00000960       ??_C@_02MDKMJEGG@eE?$AA@   00428960     implant.obj
 0002:00000964       ??_C@_02OOPEBDOJ@pP?$AA@   00428964     implant.obj
 0002:00000968       ??_C@_01LFCBOECM@?4?$AA@   00428968     implant.obj
 0002:0000096c       ??_C@_0BA@JFNIOLAK@string?5too?5long?$AA@ 0042896c     implant.obj
 0002:0000097c       ??_C@_0BI@CFPLBAOH@invalid?5string?5position?$AA@ 0042897c     implant.obj
 0002:00000998       __real@4202a05f20000000    00428998     implant.obj
 0002:000009a4       ??_7bad_alloc@std@@6B@     004289a4     libcpmt:xthrow.obj
 0002:000009ac       ??_C@_0P@GHFPNOJB@bad?5allocation?$AA@ 004289ac     libcpmt:xthrow.obj
 0002:000009c0       ??_7logic_error@std@@6B@   004289c0     libcpmt:xthrow.obj
 0002:000009cc       ??_7length_error@std@@6B@  004289cc     libcpmt:xthrow.obj
 0002:000009d8       ??_7out_of_range@std@@6B@  004289d8     libcpmt:xthrow.obj
 0002:000009e4       ??_7_Locimp@locale@std@@6B@ 004289e4     libcpmt:locale0.obj
 0002:000009f0       ??_C@_01NBENCBCI@?$CK?$AA@ 004289f0     libcpmt:locale0.obj
 0002:000009f4       ??_C@_01GFHCPBMG@C?$AA@    004289f4     libcpmt:locale0.obj
 0002:000009f8       ??_C@_0BD@JPHBMONG@identifier?5removed?$AA@ 004289f8     libcpmt:syserror.obj
 0002:00000a0c       ??_C@_0BG@CDNPAGJK@illegal?5byte?5sequence?$AA@ 00428a0c     libcpmt:syserror.obj
 0002:00000a24       ??_C@_0CD@BNPLBMNA@inappropriate?5io?5control?5operati@ 00428a24     libcpmt:syserror.obj
 0002:00000a48       ??_C@_0M@EGEKIIMP@interrupted?$AA@ 00428a48     libcpmt:syserror.obj
 0002:00000a54       ??_C@_0BB@FCMFBGOM@invalid?5argument?$AA@ 00428a54     libcpmt:syserror.obj
 0002:00000a68       ??_C@_0N@OHAFKDEK@invalid?5seek?$AA@ 00428a68     libcpmt:syserror.obj
 0002:00000a78       ??_C@_08GLNPIFBN@io?5error?$AA@ 00428a78     libcpmt:syserror.obj
 0002:00000a84       ??_C@_0P@FLLDBIDK@is?5a?5directory?$AA@ 00428a84     libcpmt:syserror.obj
 0002:00000a94       ??_C@_0N@IFLPBIOP@message?5size?$AA@ 00428a94     libcpmt:syserror.obj
 0002:00000aa4       ??_C@_0N@KIIEAAIO@network?5down?$AA@ 00428aa4     libcpmt:syserror.obj
 0002:00000ab4       ??_C@_0O@FNPDBHEE@network?5reset?$AA@ 00428ab4     libcpmt:syserror.obj
 0002:00000ac4       ??_C@_0BE@IFNCKGE@network?5unreachable?$AA@ 00428ac4     libcpmt:syserror.obj
 0002:00000ad8       ??_C@_0BA@PFFCAOFK@no?5buffer?5space?$AA@ 00428ad8     libcpmt:syserror.obj
 0002:00000ae8       ??_C@_0BB@IEPBLJHK@no?5child?5process?$AA@ 00428ae8     libcpmt:syserror.obj
 0002:00000afc       ??_C@_07PLECNNKG@no?5link?$AA@ 00428afc     libcpmt:syserror.obj
 0002:00000b04       ??_C@_0BC@NJECKMKE@no?5lock?5available?$AA@ 00428b04     libcpmt:syserror.obj
 0002:00000b18       ??_C@_0BF@PBGGPKKE@no?5message?5available?$AA@ 00428b18     libcpmt:syserror.obj
 0002:00000b30       ??_C@_0L@EDOLMPAK@no?5message?$AA@ 00428b30     libcpmt:syserror.obj
 0002:00000b3c       ??_C@_0BD@EAMBFIDF@no?5protocol?5option?$AA@ 00428b3c     libcpmt:syserror.obj
 0002:00000b50       ??_C@_0BD@IJDJKDEA@no?5space?5on?5device?$AA@ 00428b50     libcpmt:syserror.obj
 0002:00000b64       ??_C@_0BE@MKFDAFMP@no?5stream?5resources?$AA@ 00428b64     libcpmt:syserror.obj
 0002:00000b78       ??_C@_0BK@IMCPHCBI@no?5such?5device?5or?5address?$AA@ 00428b78     libcpmt:syserror.obj
 0002:00000b94       ??_C@_0P@FDINDDOK@no?5such?5device?$AA@ 00428b94     libcpmt:syserror.obj
 0002:00000ba4       ??_C@_0BK@NDOCBPGE@no?5such?5file?5or?5directory?$AA@ 00428ba4     libcpmt:syserror.obj
 0002:00000bc0       ??_C@_0BA@ENLPPKBN@no?5such?5process?$AA@ 00428bc0     libcpmt:syserror.obj
 0002:00000bd0       ??_C@_0BA@DOCPFFJG@not?5a?5directory?$AA@ 00428bd0     libcpmt:syserror.obj
 0002:00000be0       ??_C@_0N@POEIPGGF@not?5a?5socket?$AA@ 00428be0     libcpmt:syserror.obj
 0002:00000bf0       ??_C@_0N@LGAPMMPI@not?5a?5stream?$AA@ 00428bf0     libcpmt:syserror.obj
 0002:00000c00       ??_C@_0O@GLMIBBEG@not?5connected?$AA@ 00428c00     libcpmt:syserror.obj
 0002:00000c10       ??_C@_0BC@ENOOLCNF@not?5enough?5memory?$AA@ 00428c10     libcpmt:syserror.obj
 0002:00000c24       ??_C@_0O@NHEDABJP@not?5supported?$AA@ 00428c24     libcpmt:syserror.obj
 0002:00000c34       ??_C@_0BD@MOLBPMEA@operation?5canceled?$AA@ 00428c34     libcpmt:syserror.obj
 0002:00000c48       ??_C@_0BG@KDKHOPCO@operation?5in?5progress?$AA@ 00428c48     libcpmt:syserror.obj
 0002:00000c60       ??_C@_0BI@OHIEJAAB@operation?5not?5permitted?$AA@ 00428c60     libcpmt:syserror.obj
 0002:00000c78       ??_C@_0BI@LNEGIFLN@operation?5not?5supported?$AA@ 00428c78     libcpmt:syserror.obj
 0002:00000c90       ??_C@_0BG@OEMDKMEE@operation?5would?5block?$AA@ 00428c90     libcpmt:syserror.obj
 0002:00000ca8       ??_C@_0L@BLPOFLNJ@owner?5dead?$AA@ 00428ca8     libcpmt:syserror.obj
 0002:00000cb4       ??_C@_0BC@CIJDGCDI@permission?5denied?$AA@ 00428cb4     libcpmt:syserror.obj
 0002:00000cc8       ??_C@_0P@FNPOCJBE@protocol?5error?$AA@ 00428cc8     libcpmt:syserror.obj
 0002:00000cd8       ??_C@_0BH@JPPPLHJB@protocol?5not?5supported?$AA@ 00428cd8     libcpmt:syserror.obj
 0002:00000cf0       ??_C@_0BG@EICBIHDP@read?5only?5file?5system?$AA@ 00428cf0     libcpmt:syserror.obj
 0002:00000d08       ??_C@_0BO@BJBOMOEJ@resource?5deadlock?5would?5occur?$AA@ 00428d08     libcpmt:syserror.obj
 0002:00000d28       ??_C@_0BP@LKNGHENJ@resource?5unavailable?5try?5again?$AA@ 00428d28     libcpmt:syserror.obj
 0002:00000d48       ??_C@_0BE@GOIPJJHG@result?5out?5of?5range?$AA@ 00428d48     libcpmt:syserror.obj
 0002:00000d5c       ??_C@_0BG@MPLKFPAE@state?5not?5recoverable?$AA@ 00428d5c     libcpmt:syserror.obj
 0002:00000d74       ??_C@_0P@DIIFGFCG@stream?5timeout?$AA@ 00428d74     libcpmt:syserror.obj
 0002:00000d84       ??_C@_0P@IPFDMIFL@text?5file?5busy?$AA@ 00428d84     libcpmt:syserror.obj
 0002:00000d94       ??_C@_09KJPPMAOI@timed?5out?$AA@ 00428d94     libcpmt:syserror.obj
 0002:00000da0       ??_C@_0BO@HACHBEKI@too?5many?5files?5open?5in?5system?$AA@ 00428da0     libcpmt:syserror.obj
 0002:00000dc0       ??_C@_0BE@GHAFMPAH@too?5many?5files?5open?$AA@ 00428dc0     libcpmt:syserror.obj
 0002:00000dd4       ??_C@_0P@HCOMKFCC@too?5many?5links?$AA@ 00428dd4     libcpmt:syserror.obj
 0002:00000de4       ??_C@_0BO@EFGOJEF@too?5many?5symbolic?5link?5levels?$AA@ 00428de4     libcpmt:syserror.obj
 0002:00000e04       ??_C@_0BA@KGKGOOJA@value?5too?5large?$AA@ 00428e04     libcpmt:syserror.obj
 0002:00000e14       ??_C@_0BE@MIEJDDNH@wrong?5protocol?5type?$AA@ 00428e14     libcpmt:syserror.obj
 0002:000012e8       ??_C@_0BN@LKKBCCDB@address?5family?5not?5supported?$AA@ 004292e8     libcpmt:syserror.obj
 0002:00001308       ??_C@_0P@LDMLAFHI@address?5in?5use?$AA@ 00429308     libcpmt:syserror.obj
 0002:00001318       ??_C@_0BG@DHPCNBJB@address?5not?5available?$AA@ 00429318     libcpmt:syserror.obj
 0002:00001330       ??_C@_0BC@DFIBIBIL@already?5connected?$AA@ 00429330     libcpmt:syserror.obj
 0002:00001344       ??_C@_0BH@CAKOHOMI@argument?5list?5too?5long?$AA@ 00429344     libcpmt:syserror.obj
 0002:0000135c       ??_C@_0BH@CGIMPKIM@argument?5out?5of?5domain?$AA@ 0042935c     libcpmt:syserror.obj
 0002:00001374       ??_C@_0M@KGHGGJGL@bad?5address?$AA@ 00429374     libcpmt:syserror.obj
 0002:00001380       ??_C@_0BE@MPJPGCEO@bad?5file?5descriptor?$AA@ 00429380     libcpmt:syserror.obj
 0002:00001394       ??_C@_0M@PMMIEFCP@bad?5message?$AA@ 00429394     libcpmt:syserror.obj
 0002:000013a0       ??_C@_0M@KPHOFDBE@broken?5pipe?$AA@ 004293a0     libcpmt:syserror.obj
 0002:000013ac       ??_C@_0BD@MGNDDEGM@connection?5aborted?$AA@ 004293ac     libcpmt:syserror.obj
 0002:000013c0       ??_C@_0BP@KAIHPOGN@connection?5already?5in?5progress?$AA@ 004293c0     libcpmt:syserror.obj
 0002:000013e0       ??_C@_0BD@PJLIIJEL@connection?5refused?$AA@ 004293e0     libcpmt:syserror.obj
 0002:000013f4       ??_C@_0BB@IECNJNOI@connection?5reset?$AA@ 004293f4     libcpmt:syserror.obj
 0002:00001408       ??_C@_0BC@PPHBOELF@cross?5device?5link?$AA@ 00429408     libcpmt:syserror.obj
 0002:0000141c       ??_C@_0BN@KDMIFEIP@destination?5address?5required?$AA@ 0042941c     libcpmt:syserror.obj
 0002:0000143c       ??_C@_0BI@NGCEHDD@device?5or?5resource?5busy?$AA@ 0042943c     libcpmt:syserror.obj
 0002:00001454       ??_C@_0BE@JIDOCPHM@directory?5not?5empty?$AA@ 00429454     libcpmt:syserror.obj
 0002:00001468       ??_C@_0BI@BNCLIGPB@executable?5format?5error?$AA@ 00429468     libcpmt:syserror.obj
 0002:00001480       ??_C@_0M@MIDIAGJP@file?5exists?$AA@ 00429480     libcpmt:syserror.obj
 0002:0000148c       ??_C@_0P@DNAJLBJK@file?5too?5large?$AA@ 0042948c     libcpmt:syserror.obj
 0002:0000149c       ??_C@_0BC@EJHOMAAK@filename?5too?5long?$AA@ 0042949c     libcpmt:syserror.obj
 0002:000014b0       ??_C@_0BH@KEFGLDAF@function?5not?5supported?$AA@ 004294b0     libcpmt:syserror.obj
 0002:000014c8       ??_C@_0BB@DHFDFGDM@host?5unreachable?$AA@ 004294c8     libcpmt:syserror.obj
 0002:000014dc       ??_C@_0O@BFJCFAAK@unknown?5error?$AA@ 004294dc     libcpmt:syserror.obj
 0002:000014f0       ?_BADOFF@std@@3_JB         004294f0     libcpmt:ios.obj
 0002:00001534       ??_C@_01KDCPPGHE@r?$AA@    00429534     libcpmt:fiopen.obj
 0002:00001538       ??_C@_01NOFIACDB@w?$AA@    00429538     libcpmt:fiopen.obj
 0002:0000153c       ??_C@_01MCMALHOG@a?$AA@    0042953c     libcpmt:fiopen.obj
 0002:00001540       ??_C@_02JDPG@rb?$AA@       00429540     libcpmt:fiopen.obj
 0002:00001544       ??_C@_02GMLFBBN@wb?$AA@    00429544     libcpmt:fiopen.obj
 0002:00001548       ??_C@_02BOGAIONP@ab?$AA@   00429548     libcpmt:fiopen.obj
 0002:0000154c       ??_C@_02CBLLGHLK@r?$CL?$AA@ 0042954c     libcpmt:fiopen.obj
 0002:00001550       ??_C@_02CHHAKFFB@w?$CL?$AA@ 00429550     libcpmt:fiopen.obj
 0002:00001554       ??_C@_02DPNLHKJD@a?$CL?$AA@ 00429554     libcpmt:fiopen.obj
 0002:00001558       ??_C@_03HMFOOINA@r?$CLb?$AA@ 00429558     libcpmt:fiopen.obj
 0002:0000155c       ??_C@_03ELIABIOC@w?$CLb?$AA@ 0042955c     libcpmt:fiopen.obj
 0002:00001560       ??_C@_03DOPCBAKB@a?$CLb?$AA@ 00429560     libcpmt:fiopen.obj
 0002:00001564       ?valid@?1???$_Xfiopen@D@std@@YAPAU_iobuf@@PBDHH@Z@4QBHB 00429564     libcpmt:fiopen.obj
 0002:000015a4       ??_7?$basic_ostream@DU?$char_traits@D@std@@@std@@6B@ 004295a4     libcpmt:cout.obj
 0002:000015a8       ??_8?$basic_ostream@DU?$char_traits@D@std@@@std@@7B@ 004295a8     libcpmt:cout.obj
 0002:000015b0       ??_C@_1BK@MGMFAEKH@?$AAk?$AAe?$AAr?$AAn?$AAe?$AAl?$AA3?$AA2?$AA?4?$AAd?$AAl?$AAl?$AA?$AA@ 004295b0     libcpmt:winapisupp.obj
 0002:000015cc       ??_C@_08KNHFBNJ@FlsAlloc?$AA@ 004295cc     libcpmt:winapisupp.obj
 0002:000015d8       ??_C@_07PEJMOBNF@FlsFree?$AA@ 004295d8     libcpmt:winapisupp.obj
 0002:000015e0       ??_C@_0M@GDNOONDI@FlsGetValue?$AA@ 004295e0     libcpmt:winapisupp.obj
 0002:000015ec       ??_C@_0M@JCPCPOEF@FlsSetValue?$AA@ 004295ec     libcpmt:winapisupp.obj
 0002:000015f8       ??_C@_0BM@HCFOFFN@InitializeCriticalSectionEx?$AA@ 004295f8     libcpmt:winapisupp.obj
 0002:00001614       ??_C@_0BE@GPLMMCMH@InitOnceExecuteOnce?$AA@ 00429614     libcpmt:winapisupp.obj
 0002:00001628       ??_C@_0P@DLHPPCNH@CreateEventExW?$AA@ 00429628     libcpmt:winapisupp.obj
 0002:00001638       ??_C@_0BB@MEFPJLHN@CreateSemaphoreW?$AA@ 00429638     libcpmt:winapisupp.obj
 0002:0000164c       ??_C@_0BD@KIEEOEEH@CreateSemaphoreExW?$AA@ 0042964c     libcpmt:winapisupp.obj
 0002:00001660       ??_C@_0BG@OGFAJCKC@CreateThreadpoolTimer?$AA@ 00429660     libcpmt:winapisupp.obj
 0002:00001678       ??_C@_0BD@LPLEMMDI@SetThreadpoolTimer?$AA@ 00429678     libcpmt:winapisupp.obj
 0002:0000168c       ??_C@_0CA@FMNJENH@WaitForThreadpoolTimerCallbacks?$AA@ 0042968c     libcpmt:winapisupp.obj
 0002:000016ac       ??_C@_0BF@DCFCCNOC@CloseThreadpoolTimer?$AA@ 004296ac     libcpmt:winapisupp.obj
 0002:000016c4       ??_C@_0BF@FLABGKKM@CreateThreadpoolWait?$AA@ 004296c4     libcpmt:winapisupp.obj
 0002:000016dc       ??_C@_0BC@MGCOHNA@SetThreadpoolWait?$AA@ 004296dc     libcpmt:winapisupp.obj
 0002:000016f0       ??_C@_0BE@OCIOMIMP@CloseThreadpoolWait?$AA@ 004296f0     libcpmt:winapisupp.obj
 0002:00001704       ??_C@_0BJ@LKGHFHBO@FlushProcessWriteBuffers?$AA@ 00429704     libcpmt:winapisupp.obj
 0002:00001720       ??_C@_0BP@KALKKPMO@FreeLibraryWhenCallbackReturns?$AA@ 00429720     libcpmt:winapisupp.obj
 0002:00001740       ??_C@_0BK@DFNBACLA@GetCurrentProcessorNumber?$AA@ 00429740     libcpmt:winapisupp.obj
 0002:0000175c       ??_C@_0BE@FKKLLFLM@CreateSymbolicLinkW?$AA@ 0042975c     libcpmt:winapisupp.obj
 0002:00001770       ??_C@_0BE@JOGNEJCI@GetCurrentPackageId?$AA@ 00429770     libcpmt:winapisupp.obj
 0002:00001784       ??_C@_0P@CDHHOHKP@GetTickCount64?$AA@ 00429784     libcpmt:winapisupp.obj
 0002:00001794       ??_C@_0BN@NEEHBBPO@GetFileInformationByHandleEx?$AA@ 00429794     libcpmt:winapisupp.obj
 0002:000017b4       ??_C@_0BL@KBBHGKCM@SetFileInformationByHandle?$AA@ 004297b4     libcpmt:winapisupp.obj
 0002:000017d0       ??_C@_0BP@FPNJPEJC@GetSystemTimePreciseAsFileTime?$AA@ 004297d0     libcpmt:winapisupp.obj
 0002:000017f0       ??_C@_0BM@HLJJNPAH@InitializeConditionVariable?$AA@ 004297f0     libcpmt:winapisupp.obj
 0002:0000180c       ??_C@_0BG@BFNILBLN@WakeConditionVariable?$AA@ 0042980c     libcpmt:winapisupp.obj
 0002:00001824       ??_C@_0BJ@PGPPEPCC@WakeAllConditionVariable?$AA@ 00429824     libcpmt:winapisupp.obj
 0002:00001840       ??_C@_0BJ@JEBJOJFJ@SleepConditionVariableCS?$AA@ 00429840     libcpmt:winapisupp.obj
 0002:0000185c       ??_C@_0BC@MMLHEBPB@InitializeSRWLock?$AA@ 0042985c     libcpmt:winapisupp.obj
 0002:00001870       ??_C@_0BI@OMNLIJDB@AcquireSRWLockExclusive?$AA@ 00429870     libcpmt:winapisupp.obj
 0002:00001888       ??_C@_0BL@OGHFEMNA@TryAcquireSRWLockExclusive?$AA@ 00429888     libcpmt:winapisupp.obj
 0002:000018a4       ??_C@_0BI@HMIEPCNJ@ReleaseSRWLockExclusive?$AA@ 004298a4     libcpmt:winapisupp.obj
 0002:000018bc       ??_C@_0BK@LGACAGIC@SleepConditionVariableSRW?$AA@ 004298bc     libcpmt:winapisupp.obj
 0002:000018d8       ??_C@_0BF@GGPHFPJA@CreateThreadpoolWork?$AA@ 004298d8     libcpmt:winapisupp.obj
 0002:000018f0       ??_C@_0BF@NHDAIMMO@SubmitThreadpoolWork?$AA@ 004298f0     libcpmt:winapisupp.obj
 0002:00001908       ??_C@_0BE@NPHIPNPD@CloseThreadpoolWork?$AA@ 00429908     libcpmt:winapisupp.obj
 0002:0000191c       ??_C@_0BA@IHGNDAEB@CompareStringEx?$AA@ 0042991c     libcpmt:winapisupp.obj
 0002:0000192c       ??_C@_0BA@ONOKGCMP@GetLocaleInfoEx?$AA@ 0042992c     libcpmt:winapisupp.obj
 0002:0000193c       ??_C@_0O@KKBNKAPF@LCMapStringEx?$AA@ 0042993c     libcpmt:winapisupp.obj
 0002:00002790       ??_C@_15EMKDOKLE@?$AAa?$AAr?$AA?$AA@ 0042a790     libcpmt:winapinls.obj
 0002:00002798       ??_C@_15KNPADPLH@?$AAb?$AAg?$AA?$AA@ 0042a798     libcpmt:winapinls.obj
 0002:000027a0       ??_C@_15EDMHLDMO@?$AAc?$AAa?$AA?$AA@ 0042a7a0     libcpmt:winapinls.obj
 0002:000027a8       ??_C@_1O@BPEAJADD@?$AAz?$AAh?$AA?9?$AAC?$AAH?$AAS?$AA?$AA@ 0042a7a8     libcpmt:winapinls.obj
 0002:000027b8       ??_C@_15LJNHCMNK@?$AAc?$AAs?$AA?$AA@ 0042a7b8     libcpmt:winapinls.obj
 0002:000027c0       ??_C@_15FOMCIDHG@?$AAd?$AAa?$AA?$AA@ 0042a7c0     libcpmt:winapinls.obj
 0002:000027c8       ??_C@_15NBKABECB@?$AAd?$AAe?$AA?$AA@ 0042a7c8     libcpmt:winapinls.obj
 0002:000027d0       ??_C@_15GHPEIIAO@?$AAe?$AAl?$AA?$AA@ 0042a7d0     libcpmt:winapinls.obj
 0002:000027d8       ??_C@_15MNPNEAIF@?$AAe?$AAn?$AA?$AA@ 0042a7d8     libcpmt:winapinls.obj
 0002:000027e0       ??_C@_15GPIOMPMH@?$AAe?$AAs?$AA?$AA@ 0042a7e0     libcpmt:winapinls.obj
 0002:000027e8       ??_C@_15NGLOAKJC@?$AAf?$AAi?$AA?$AA@ 0042a7e8     libcpmt:winapinls.obj
 0002:000027f0       ??_C@_15FBKGNKAM@?$AAf?$AAr?$AA?$AA@ 0042a7f0     libcpmt:winapinls.obj
 0002:000027f8       ??_C@_15KGGCNEFK@?$AAh?$AAe?$AA?$AA@ 0042a7f8     libcpmt:winapinls.obj
 0002:00002800       ??_C@_15PGHLIDMF@?$AAh?$AAu?$AA?$AA@ 0042a800     libcpmt:winapinls.obj
 0002:00002808       ??_C@_15BIEMAPLM@?$AAi?$AAs?$AA?$AA@ 0042a808     libcpmt:winapinls.obj
 0002:00002810       ??_C@_15IFJLDHAF@?$AAi?$AAt?$AA?$AA@ 0042a810     libcpmt:winapinls.obj
 0002:00002818       ??_C@_15GEMIOCAG@?$AAj?$AAa?$AA?$AA@ 0042a818     libcpmt:winapinls.obj
 0002:00002820       ??_C@_15EPELEGJA@?$AAk?$AAo?$AA?$AA@ 0042a820     libcpmt:winapinls.obj
 0002:00002828       ??_C@_15NDDHIMN@?$AAn?$AAl?$AA?$AA@ 0042a828     libcpmt:winapinls.obj
 0002:00002830       ??_C@_15BPIGNHCD@?$AAn?$AAo?$AA?$AA@ 0042a830     libcpmt:winapinls.obj
 0002:00002838       ??_C@_15DEOPBLCG@?$AAp?$AAl?$AA?$AA@ 0042a838     libcpmt:winapinls.obj
 0002:00002840       ??_C@_15KBECGEFG@?$AAp?$AAt?$AA?$AA@ 0042a840     libcpmt:winapinls.obj
 0002:00002848       ??_C@_15GLJCBFMD@?$AAr?$AAo?$AA?$AA@ 0042a848     libcpmt:winapinls.obj
 0002:00002850       ??_C@_15FEDGKCDI@?$AAr?$AAu?$AA?$AA@ 0042a850     libcpmt:winapinls.obj
 0002:00002858       ??_C@_15GLKMLLHM@?$AAh?$AAr?$AA?$AA@ 0042a858     libcpmt:winapinls.obj
 0002:00002860       ??_C@_15CPKMFBDB@?$AAs?$AAk?$AA?$AA@ 0042a860     libcpmt:winapinls.obj
 0002:00002868       ??_C@_15BAAIOGMK@?$AAs?$AAq?$AA?$AA@ 0042a868     libcpmt:winapinls.obj
 0002:00002870       ??_C@_15INNPNOHD@?$AAs?$AAv?$AA?$AA@ 0042a870     libcpmt:winapinls.obj
 0002:00002878       ??_C@_15CABMMOGH@?$AAt?$AAh?$AA?$AA@ 0042a878     libcpmt:winapinls.obj
 0002:00002880       ??_C@_15BPLIHJJM@?$AAt?$AAr?$AA?$AA@ 0042a880     libcpmt:winapinls.obj
 0002:00002888       ??_C@_15NEOEKKDJ@?$AAu?$AAr?$AA?$AA@ 0042a888     libcpmt:winapinls.obj
 0002:00002890       ??_C@_15NFICGAJK@?$AAi?$AAd?$AA?$AA@ 0042a890     libcpmt:winapinls.obj
 0002:00002898       ??_C@_15PJPFLCCM@?$AAu?$AAk?$AA?$AA@ 0042a898     libcpmt:winapinls.obj
 0002:000028a0       ??_C@_15HPJPHDM@?$AAb?$AAe?$AA?$AA@ 0042a8a0     libcpmt:winapinls.obj
 0002:000028a8       ??_C@_15LCHLGJII@?$AAs?$AAl?$AA?$AA@ 0042a8a8     libcpmt:winapinls.obj
 0002:000028b0       ??_C@_15PCFJPHHO@?$AAe?$AAt?$AA?$AA@ 0042a8b0     libcpmt:winapinls.obj
 0002:000028b8       ??_C@_15HPFPGODN@?$AAl?$AAv?$AA?$AA@ 0042a8b8     libcpmt:winapinls.obj
 0002:000028c0       ??_C@_15NFFGKGLG@?$AAl?$AAt?$AA?$AA@ 0042a8c0     libcpmt:winapinls.obj
 0002:000028c8       ??_C@_15BDAKCCHN@?$AAf?$AAa?$AA?$AA@ 0042a8c8     libcpmt:winapinls.obj
 0002:000028d0       ??_C@_15NFGIAIAJ@?$AAv?$AAi?$AA?$AA@ 0042a8d0     libcpmt:winapinls.obj
 0002:000028d8       ??_C@_15LMKNDMHN@?$AAh?$AAy?$AA?$AA@ 0042a8d8     libcpmt:winapinls.obj
 0002:000028e0       ??_C@_15IJBHMCFL@?$AAa?$AAz?$AA?$AA@ 0042a8e0     libcpmt:winapinls.obj
 0002:000028e8       ??_C@_15EKOFJABL@?$AAe?$AAu?$AA?$AA@ 0042a8e8     libcpmt:winapinls.obj
 0002:000028f0       ??_C@_15BGHADCNK@?$AAm?$AAk?$AA?$AA@ 0042a8f0     libcpmt:winapinls.obj
 0002:000028f8       ??_C@_15JDNICKHM@?$AAa?$AAf?$AA?$AA@ 0042a8f8     libcpmt:winapinls.obj
 0002:00002900       ??_C@_15KPJEDBKD@?$AAk?$AAa?$AA?$AA@ 0042a900     libcpmt:winapinls.obj
 0002:00002908       ??_C@_15PDNFFFEO@?$AAf?$AAo?$AA?$AA@ 0042a908     libcpmt:winapinls.obj
 0002:00002910       ??_C@_15OMLEGLOC@?$AAh?$AAi?$AA?$AA@ 0042a910     libcpmt:winapinls.obj
 0002:00002918       ??_C@_15IDNNENKK@?$AAm?$AAs?$AA?$AA@ 0042a918     libcpmt:winapinls.obj
 0002:00002920       ??_C@_15MACJNBMH@?$AAk?$AAk?$AA?$AA@ 0042a920     libcpmt:winapinls.obj
 0002:00002928       ??_C@_15DKDJEOND@?$AAk?$AAy?$AA?$AA@ 0042a928     libcpmt:winapinls.obj
 0002:00002930       ??_C@_15DFGDLJBG@?$AAs?$AAw?$AA?$AA@ 0042a930     libcpmt:winapinls.obj
 0002:00002938       ??_C@_15BBFAICNG@?$AAu?$AAz?$AA?$AA@ 0042a938     libcpmt:winapinls.obj
 0002:00002940       ??_C@_15DKNDCGEA@?$AAt?$AAt?$AA?$AA@ 0042a940     libcpmt:winapinls.obj
 0002:00002948       ??_C@_15MGIFMDPL@?$AAp?$AAa?$AA?$AA@ 0042a948     libcpmt:winapinls.obj
 0002:00002950       ??_C@_15HCNDBBA@?$AAg?$AAu?$AA?$AA@ 0042a950     libcpmt:winapinls.obj
 0002:00002958       ??_C@_15FNBEIBON@?$AAt?$AAa?$AA?$AA@ 0042a958     libcpmt:winapinls.obj
 0002:00002960       ??_C@_15NCHGBGLK@?$AAt?$AAe?$AA?$AA@ 0042a960     libcpmt:winapinls.obj
 0002:00002968       ??_C@_15PHPHCBPF@?$AAk?$AAn?$AA?$AA@ 0042a968     libcpmt:winapinls.obj
 0002:00002970       ??_C@_15DLGBCKMP@?$AAm?$AAr?$AA?$AA@ 0042a970     libcpmt:winapinls.obj
 0002:00002978       ??_C@_15EABBLBFF@?$AAs?$AAa?$AA?$AA@ 0042a978     libcpmt:winapinls.obj
 0002:00002980       ??_C@_15CBKOMCOI@?$AAm?$AAn?$AA?$AA@ 0042a980     libcpmt:winapinls.obj
 0002:00002988       ??_C@_15CKDMCJAF@?$AAg?$AAl?$AA?$AA@ 0042a988     libcpmt:winapinls.obj
 0002:00002990       ??_C@_17CNJFBPG@?$AAk?$AAo?$AAk?$AA?$AA@ 0042a990     libcpmt:winapinls.obj
 0002:00002998       ??_C@_17FFBJICPL@?$AAs?$AAy?$AAr?$AA?$AA@ 0042a998     libcpmt:winapinls.obj
 0002:000029a0       ??_C@_17KPNDCPAF@?$AAd?$AAi?$AAv?$AA?$AA@ 0042a9a0     libcpmt:winapinls.obj
 0002:000029a8       ??_C@_11LOCGONAA@?$AA?$AA@ 0042a9a8     libcpmt:winapinls.obj
 0002:000029ac       ??_C@_1M@OKAHONE@?$AAa?$AAr?$AA?9?$AAS?$AAA?$AA?$AA@ 0042a9ac     libcpmt:winapinls.obj
 0002:000029b8       ??_C@_1M@FFFIGIGK@?$AAb?$AAg?$AA?9?$AAB?$AAG?$AA?$AA@ 0042a9b8     libcpmt:winapinls.obj
 0002:000029c4       ??_C@_1M@BJNKEDC@?$AAc?$AAa?$AA?9?$AAE?$AAS?$AA?$AA@ 0042a9c4     libcpmt:winapinls.obj
 0002:000029d0       ??_C@_1M@CLNBBOPM@?$AAz?$AAh?$AA?9?$AAT?$AAW?$AA?$AA@ 0042a9d0     libcpmt:winapinls.obj
 0002:000029dc       ??_C@_1M@IJJHFJHA@?$AAc?$AAs?$AA?9?$AAC?$AAZ?$AA?$AA@ 0042a9dc     libcpmt:winapinls.obj
 0002:000029e8       ??_C@_1M@CLPEOBGI@?$AAd?$AAa?$AA?9?$AAD?$AAK?$AA?$AA@ 0042a9e8     libcpmt:winapinls.obj
 0002:000029f4       ??_C@_1M@MCMADGCB@?$AAd?$AAe?$AA?9?$AAD?$AAE?$AA?$AA@ 0042a9f4     libcpmt:winapinls.obj
 0002:00002a00       ??_C@_1M@OOCKEMAM@?$AAe?$AAl?$AA?9?$AAG?$AAR?$AA?$AA@ 0042aa00     libcpmt:winapinls.obj
 0002:00002a0c       ??_C@_1M@BMHNFIME@?$AAe?$AAn?$AA?9?$AAU?$AAS?$AA?$AA@ 0042aa0c     libcpmt:winapinls.obj
 0002:00002a18       ??_C@_1M@DDNJFGID@?$AAf?$AAi?$AA?9?$AAF?$AAI?$AA?$AA@ 0042aa18     libcpmt:winapinls.obj
 0002:00002a24       ??_C@_1M@GLIPPMAC@?$AAf?$AAr?$AA?9?$AAF?$AAR?$AA?$AA@ 0042aa24     libcpmt:winapinls.obj
 0002:00002a30       ??_C@_1M@GFMCHPE@?$AAh?$AAe?$AA?9?$AAI?$AAL?$AA?$AA@ 0042aa30     libcpmt:winapinls.obj
 0002:00002a3c       ??_C@_1M@MHLPGNKM@?$AAh?$AAu?$AA?9?$AAH?$AAU?$AA?$AA@ 0042aa3c     libcpmt:winapinls.obj
 0002:00002a48       ??_C@_1M@LPDDNNPN@?$AAi?$AAs?$AA?9?$AAI?$AAS?$AA?$AA@ 0042aa48     libcpmt:winapinls.obj
 0002:00002a54       ??_C@_1M@MADIPODN@?$AAi?$AAt?$AA?9?$AAI?$AAT?$AA?$AA@ 0042aa54     libcpmt:winapinls.obj
 0002:00002a60       ??_C@_1M@HPNHIDJI@?$AAj?$AAa?$AA?9?$AAJ?$AAP?$AA?$AA@ 0042aa60     libcpmt:winapinls.obj
 0002:00002a6c       ??_C@_1M@JLOOOEGK@?$AAk?$AAo?$AA?9?$AAK?$AAR?$AA?$AA@ 0042aa6c     libcpmt:winapinls.obj
 0002:00002a78       ??_C@_1M@IHBJJGG@?$AAn?$AAl?$AA?9?$AAN?$AAL?$AA?$AA@ 0042aa78     libcpmt:winapinls.obj
 0002:00002a84       ??_C@_1M@EANAGDL@?$AAn?$AAb?$AA?9?$AAN?$AAO?$AA?$AA@ 0042aa84     libcpmt:winapinls.obj
 0002:00002a90       ??_C@_1M@NEIEMEGP@?$AAp?$AAl?$AA?9?$AAP?$AAL?$AA?$AA@ 0042aa90     libcpmt:winapinls.obj
 0002:00002a9c       ??_C@_1M@BOCFIGEP@?$AAp?$AAt?$AA?9?$AAB?$AAR?$AA?$AA@ 0042aa9c     libcpmt:winapinls.obj
 0002:00002aa8       ??_C@_1M@IMPFOPBG@?$AAr?$AAo?$AA?9?$AAR?$AAO?$AA?$AA@ 0042aaa8     libcpmt:winapinls.obj
 0002:00002ab4       ??_C@_1M@IDNNEJMM@?$AAr?$AAu?$AA?9?$AAR?$AAU?$AA?$AA@ 0042aab4     libcpmt:winapinls.obj
 0002:00002ac0       ??_C@_1M@LILEEOGM@?$AAh?$AAr?$AA?9?$AAH?$AAR?$AA?$AA@ 0042aac0     libcpmt:winapinls.obj
 0002:00002acc       ??_C@_1M@FKIFEHPB@?$AAs?$AAk?$AA?9?$AAS?$AAK?$AA?$AA@ 0042aacc     libcpmt:winapinls.obj
 0002:00002ad8       ??_C@_1M@LJMAMNPJ@?$AAs?$AAq?$AA?9?$AAA?$AAL?$AA?$AA@ 0042aad8     libcpmt:winapinls.obj
 0002:00002ae4       ??_C@_1M@GIAKDKJK@?$AAs?$AAv?$AA?9?$AAS?$AAE?$AA?$AA@ 0042aae4     libcpmt:winapinls.obj
 0002:00002af0       ??_C@_1M@MKJKIKCL@?$AAt?$AAh?$AA?9?$AAT?$AAH?$AA?$AA@ 0042aaf0     libcpmt:winapinls.obj
 0002:00002afc       ??_C@_1M@MFLCCMPB@?$AAt?$AAr?$AA?9?$AAT?$AAR?$AA?$AA@ 0042aafc     libcpmt:winapinls.obj
 0002:00002b08       ??_C@_1M@OIJHDKJN@?$AAu?$AAr?$AA?9?$AAP?$AAK?$AA?$AA@ 0042ab08     libcpmt:winapinls.obj
 0002:00002b14       ??_C@_1M@LHIPCIEK@?$AAi?$AAd?$AA?9?$AAI?$AAD?$AA?$AA@ 0042ab14     libcpmt:winapinls.obj
 0002:00002b20       ??_C@_1M@MFMOBGI@?$AAu?$AAk?$AA?9?$AAU?$AAA?$AA?$AA@ 0042ab20     libcpmt:winapinls.obj
 0002:00002b2c       ??_C@_1M@OBGLJIPL@?$AAb?$AAe?$AA?9?$AAB?$AAY?$AA?$AA@ 0042ab2c     libcpmt:winapinls.obj
 0002:00002b38       ??_C@_1M@BCFAJEAD@?$AAs?$AAl?$AA?9?$AAS?$AAI?$AA?$AA@ 0042ab38     libcpmt:winapinls.obj
 0002:00002b44       ??_C@_1M@FKFFEDDN@?$AAe?$AAt?$AA?9?$AAE?$AAE?$AA?$AA@ 0042ab44     libcpmt:winapinls.obj
 0002:00002b50       ??_C@_1M@KGKKAACI@?$AAl?$AAv?$AA?9?$AAL?$AAV?$AA?$AA@ 0042ab50     libcpmt:winapinls.obj
 0002:00002b5c       ??_C@_1M@IFGBIJO@?$AAl?$AAt?$AA?9?$AAL?$AAT?$AA?$AA@ 0042ab5c     libcpmt:winapinls.obj
 0002:00002b68       ??_C@_1M@FGEAHEDM@?$AAf?$AAa?$AA?9?$AAI?$AAR?$AA?$AA@ 0042ab68     libcpmt:winapinls.obj
 0002:00002b74       ??_C@_1M@KBMAIBFN@?$AAv?$AAi?$AA?9?$AAV?$AAN?$AA?$AA@ 0042ab74     libcpmt:winapinls.obj
 0002:00002b80       ??_C@_1M@GPCBKDJK@?$AAh?$AAy?$AA?9?$AAA?$AAM?$AA?$AA@ 0042ab80     libcpmt:winapinls.obj
 0002:00002b8c       ??_C@_1BG@BECMDDJB@?$AAa?$AAz?$AA?9?$AAA?$AAZ?$AA?9?$AAL?$AAa?$AAt?$AAn?$AA?$AA@ 0042ab8c     libcpmt:winapinls.obj
 0002:00002ba4       ??_C@_1M@MAOFCAEA@?$AAe?$AAu?$AA?9?$AAE?$AAS?$AA?$AA@ 0042aba4     libcpmt:winapinls.obj
 0002:00002bb0       ??_C@_1M@IGHABKPI@?$AAm?$AAk?$AA?9?$AAM?$AAK?$AA?$AA@ 0042abb0     libcpmt:winapinls.obj
 0002:00002bbc       ??_C@_1M@IAIGNEJG@?$AAt?$AAn?$AA?9?$AAZ?$AAA?$AA?$AA@ 0042abbc     libcpmt:winapinls.obj
 0002:00002bc8       ??_C@_1M@IIJCOJFA@?$AAx?$AAh?$AA?9?$AAZ?$AAA?$AA?$AA@ 0042abc8     libcpmt:winapinls.obj
 0002:00002bd4       ??_C@_1M@LGPJHNJH@?$AAz?$AAu?$AA?9?$AAZ?$AAA?$AA?$AA@ 0042abd4     libcpmt:winapinls.obj
 0002:00002be0       ??_C@_1M@HOKAOIO@?$AAa?$AAf?$AA?9?$AAZ?$AAA?$AA?$AA@ 0042abe0     libcpmt:winapinls.obj
 0002:00002bec       ??_C@_1M@DPCLHLIE@?$AAk?$AAa?$AA?9?$AAG?$AAE?$AA?$AA@ 0042abec     libcpmt:winapinls.obj
 0002:00002bf8       ??_C@_1M@BLKMHJBI@?$AAf?$AAo?$AA?9?$AAF?$AAO?$AA?$AA@ 0042abf8     libcpmt:winapinls.obj
 0002:00002c04       ??_C@_1M@LGGJAPPB@?$AAh?$AAi?$AA?9?$AAI?$AAN?$AA?$AA@ 0042ac04     libcpmt:winapinls.obj
 0002:00002c10       ??_C@_1M@FIKPIHFE@?$AAm?$AAt?$AA?9?$AAM?$AAT?$AA?$AA@ 0042ac10     libcpmt:winapinls.obj
 0002:00002c1c       ??_C@_1M@HEGGPBFA@?$AAs?$AAe?$AA?9?$AAN?$AAO?$AA?$AA@ 0042ac1c     libcpmt:winapinls.obj
 0002:00002c28       ??_C@_1M@EIBJEEPA@?$AAm?$AAs?$AA?9?$AAM?$AAY?$AA?$AA@ 0042ac28     libcpmt:winapinls.obj
 0002:00002c34       ??_C@_1M@FHLBGMPP@?$AAk?$AAk?$AA?9?$AAK?$AAZ?$AA?$AA@ 0042ac34     libcpmt:winapinls.obj
 0002:00002c40       ??_C@_1M@NGJJLCGI@?$AAk?$AAy?$AA?9?$AAK?$AAG?$AA?$AA@ 0042ac40     libcpmt:winapinls.obj
 0002:00002c4c       ??_C@_1M@GIENNBFC@?$AAs?$AAw?$AA?9?$AAK?$AAE?$AA?$AA@ 0042ac4c     libcpmt:winapinls.obj
 0002:00002c58       ??_C@_1BG@NDGMJIMJ@?$AAu?$AAz?$AA?9?$AAU?$AAZ?$AA?9?$AAL?$AAa?$AAt?$AAn?$AA?$AA@ 0042ac58     libcpmt:winapinls.obj
 0002:00002c70       ??_C@_1M@IDCCIHBC@?$AAt?$AAt?$AA?9?$AAR?$AAU?$AA?$AA@ 0042ac70     libcpmt:winapinls.obj
 0002:00002c7c       ??_C@_1M@LOICPMOJ@?$AAb?$AAn?$AA?9?$AAI?$AAN?$AA?$AA@ 0042ac7c     libcpmt:winapinls.obj
 0002:00002c88       ??_C@_1M@KPKKNEAH@?$AAp?$AAa?$AA?9?$AAI?$AAN?$AA?$AA@ 0042ac88     libcpmt:winapinls.obj
 0002:00002c94       ??_C@_1M@PJGPPBOG@?$AAg?$AAu?$AA?9?$AAI?$AAN?$AA?$AA@ 0042ac94     libcpmt:winapinls.obj
 0002:00002ca0       ??_C@_1M@KMKMOPHI@?$AAt?$AAa?$AA?9?$AAI?$AAN?$AA?$AA@ 0042aca0     libcpmt:winapinls.obj
 0002:00002cac       ??_C@_1M@KFEHEPAC@?$AAt?$AAe?$AA?9?$AAI?$AAN?$AA?$AA@ 0042acac     libcpmt:winapinls.obj
 0002:00002cb8       ??_C@_1M@CDCLMGHI@?$AAk?$AAn?$AA?9?$AAI?$AAN?$AA?$AA@ 0042acb8     libcpmt:winapinls.obj
 0002:00002cc4       ??_C@_1M@MIODLDKF@?$AAm?$AAl?$AA?9?$AAI?$AAN?$AA?$AA@ 0042acc4     libcpmt:winapinls.obj
 0002:00002cd0       ??_C@_1M@PBIEACPO@?$AAm?$AAr?$AA?9?$AAI?$AAN?$AA?$AA@ 0042acd0     libcpmt:winapinls.obj
 0002:00002cdc       ??_C@_1M@NIDEAGPH@?$AAs?$AAa?$AA?9?$AAI?$AAN?$AA?$AA@ 0042acdc     libcpmt:winapinls.obj
 0002:00002ce8       ??_C@_1M@FHIHCBIO@?$AAm?$AAn?$AA?9?$AAM?$AAN?$AA?$AA@ 0042ace8     libcpmt:winapinls.obj
 0002:00002cf4       ??_C@_1M@JAIJPENP@?$AAc?$AAy?$AA?9?$AAG?$AAB?$AA?$AA@ 0042acf4     libcpmt:winapinls.obj
 0002:00002d00       ??_C@_1M@PHGFBEPN@?$AAg?$AAl?$AA?9?$AAE?$AAS?$AA?$AA@ 0042ad00     libcpmt:winapinls.obj
 0002:00002d0c       ??_C@_1O@KPIPDNCP@?$AAk?$AAo?$AAk?$AA?9?$AAI?$AAN?$AA?$AA@ 0042ad0c     libcpmt:winapinls.obj
 0002:00002d1c       ??_C@_1O@KNHJLDJA@?$AAs?$AAy?$AAr?$AA?9?$AAS?$AAY?$AA?$AA@ 0042ad1c     libcpmt:winapinls.obj
 0002:00002d2c       ??_C@_1O@MKEKBLAH@?$AAd?$AAi?$AAv?$AA?9?$AAM?$AAV?$AA?$AA@ 0042ad2c     libcpmt:winapinls.obj
 0002:00002d3c       ??_C@_1O@OHDCKDDF@?$AAq?$AAu?$AAz?$AA?9?$AAB?$AAO?$AA?$AA@ 0042ad3c     libcpmt:winapinls.obj
 0002:00002d4c       ??_C@_1M@LEPJNLFD@?$AAn?$AAs?$AA?9?$AAZ?$AAA?$AA?$AA@ 0042ad4c     libcpmt:winapinls.obj
 0002:00002d58       ??_C@_1M@OMLEIIJB@?$AAm?$AAi?$AA?9?$AAN?$AAZ?$AA?$AA@ 0042ad58     libcpmt:winapinls.obj
 0002:00002d64       ??_C@_1M@PMPEAILG@?$AAa?$AAr?$AA?9?$AAI?$AAQ?$AA?$AA@ 0042ad64     libcpmt:winapinls.obj
 0002:00002d70       ??_C@_1M@BIBDDEMK@?$AAz?$AAh?$AA?9?$AAC?$AAN?$AA?$AA@ 0042ad70     libcpmt:winapinls.obj
 0002:00002d7c       ??_C@_1M@CNKPNOEE@?$AAd?$AAe?$AA?9?$AAC?$AAH?$AA?$AA@ 0042ad7c     libcpmt:winapinls.obj
 0002:00002d88       ??_C@_1M@LKMGMLKO@?$AAe?$AAn?$AA?9?$AAG?$AAB?$AA?$AA@ 0042ad88     libcpmt:winapinls.obj
 0002:00002d94       ??_C@_1M@PGKJFFGL@?$AAe?$AAs?$AA?9?$AAM?$AAX?$AA?$AA@ 0042ad94     libcpmt:winapinls.obj
 0002:00002da0       ??_C@_1M@DNNANBDC@?$AAf?$AAr?$AA?9?$AAB?$AAE?$AA?$AA@ 0042ada0     libcpmt:winapinls.obj
 0002:00002dac       ??_C@_1M@HLGMDFHM@?$AAi?$AAt?$AA?9?$AAC?$AAH?$AA?$AA@ 0042adac     libcpmt:winapinls.obj
 0002:00002db8       ??_C@_1M@CLLBGJH@?$AAn?$AAl?$AA?9?$AAB?$AAE?$AA?$AA@ 0042adb8     libcpmt:winapinls.obj
 0002:00002dc4       ??_C@_1M@BODBOGLF@?$AAn?$AAn?$AA?9?$AAN?$AAO?$AA?$AA@ 0042adc4     libcpmt:winapinls.obj
 0002:00002dd0       ??_C@_1M@HFFAHKAD@?$AAp?$AAt?$AA?9?$AAP?$AAT?$AA?$AA@ 0042add0     libcpmt:winapinls.obj
 0002:00002ddc       ??_C@_1BG@LNOAKHIE@?$AAs?$AAr?$AA?9?$AAS?$AAP?$AA?9?$AAL?$AAa?$AAt?$AAn?$AA?$AA@ 0042addc     libcpmt:winapinls.obj
 0002:00002df4       ??_C@_1M@HBMHBGAK@?$AAs?$AAv?$AA?9?$AAF?$AAI?$AA?$AA@ 0042adf4     libcpmt:winapinls.obj
 0002:00002e00       ??_C@_1BG@DGCJGJBE@?$AAa?$AAz?$AA?9?$AAA?$AAZ?$AA?9?$AAC?$AAy?$AAr?$AAl?$AA?$AA@ 0042ae00     libcpmt:winapinls.obj
 0002:00002e18       ??_C@_1M@KEJDAAHB@?$AAs?$AAe?$AA?9?$AAS?$AAE?$AA?$AA@ 0042ae18     libcpmt:winapinls.obj
 0002:00002e24       ??_C@_1M@HEIBJJAD@?$AAm?$AAs?$AA?9?$AAB?$AAN?$AA?$AA@ 0042ae24     libcpmt:winapinls.obj
 0002:00002e30       ??_C@_1BG@PBGJMCEM@?$AAu?$AAz?$AA?9?$AAU?$AAZ?$AA?9?$AAC?$AAy?$AAr?$AAl?$AA?$AA@ 0042ae30     libcpmt:winapinls.obj
 0002:00002e48       ??_C@_1O@LAOBCMDF@?$AAq?$AAu?$AAz?$AA?9?$AAE?$AAC?$AA?$AA@ 0042ae48     libcpmt:winapinls.obj
 0002:00002e58       ??_C@_1M@POEEMAIO@?$AAa?$AAr?$AA?9?$AAE?$AAG?$AA?$AA@ 0042ae58     libcpmt:winapinls.obj
 0002:00002e64       ??_C@_1M@EFAKDEDL@?$AAz?$AAh?$AA?9?$AAH?$AAK?$AA?$AA@ 0042ae64     libcpmt:winapinls.obj
 0002:00002e70       ??_C@_1M@HKKIJHGI@?$AAd?$AAe?$AA?9?$AAA?$AAT?$AA?$AA@ 0042ae70     libcpmt:winapinls.obj
 0002:00002e7c       ??_C@_1M@KBFBEHJF@?$AAe?$AAn?$AA?9?$AAA?$AAU?$AA?$AA@ 0042ae7c     libcpmt:winapinls.obj
 0002:00002e88       ??_C@_1M@MNPLFAAH@?$AAe?$AAs?$AA?9?$AAE?$AAS?$AA?$AA@ 0042ae88     libcpmt:winapinls.obj
 0002:00002e94       ??_C@_1M@HJOOJFMA@?$AAf?$AAr?$AA?9?$AAC?$AAA?$AA?$AA@ 0042ae94     libcpmt:winapinls.obj
 0002:00002ea0       ??_C@_1BG@JPOFPNAB@?$AAs?$AAr?$AA?9?$AAS?$AAP?$AA?9?$AAC?$AAy?$AAr?$AAl?$AA?$AA@ 0042aea0     libcpmt:winapinls.obj
 0002:00002eb8       ??_C@_1M@LNFOCMOB@?$AAs?$AAe?$AA?9?$AAF?$AAI?$AA?$AA@ 0042aeb8     libcpmt:winapinls.obj
 0002:00002ec4       ??_C@_1O@MGJBOAMB@?$AAq?$AAu?$AAz?$AA?9?$AAP?$AAE?$AA?$AA@ 0042aec4     libcpmt:winapinls.obj
 0002:00002ed4       ??_C@_1M@GJINLBOK@?$AAa?$AAr?$AA?9?$AAL?$AAY?$AA?$AA@ 0042aed4     libcpmt:winapinls.obj
 0002:00002ee0       ??_C@_1M@GGMNHJNL@?$AAz?$AAh?$AA?9?$AAS?$AAG?$AA?$AA@ 0042aee0     libcpmt:winapinls.obj
 0002:00002eec       ??_C@_1M@HOIKODND@?$AAd?$AAe?$AA?9?$AAL?$AAU?$AA?$AA@ 0042aeec     libcpmt:winapinls.obj
 0002:00002ef8       ??_C@_1M@DDOCCGFG@?$AAe?$AAn?$AA?9?$AAC?$AAA?$AA?$AA@ 0042aef8     libcpmt:winapinls.obj
 0002:00002f04       ??_C@_1M@BNOEMJLF@?$AAe?$AAs?$AA?9?$AAG?$AAT?$AA?$AA@ 0042af04     libcpmt:winapinls.obj
 0002:00002f10       ??_C@_1M@EOGNKEK@?$AAf?$AAr?$AA?9?$AAC?$AAH?$AA?$AA@ 0042af10     libcpmt:winapinls.obj
 0002:00002f1c       ??_C@_1M@FLIDJFHL@?$AAh?$AAr?$AA?9?$AAB?$AAA?$AA?$AA@ 0042af1c     libcpmt:winapinls.obj
 0002:00002f28       ??_C@_1O@FMCELNAJ@?$AAs?$AAm?$AAj?$AA?9?$AAN?$AAO?$AA?$AA@ 0042af28     libcpmt:winapinls.obj
 0002:00002f38       ??_C@_1M@JHGLJMGJ@?$AAa?$AAr?$AA?9?$AAD?$AAZ?$AA?$AA@ 0042af38     libcpmt:winapinls.obj
 0002:00002f44       ??_C@_1M@JKKFDCNP@?$AAz?$AAh?$AA?9?$AAM?$AAO?$AA?$AA@ 0042af44     libcpmt:winapinls.obj
 0002:00002f50       ??_C@_1M@GEEFALPE@?$AAd?$AAe?$AA?9?$AAL?$AAI?$AA?$AA@ 0042af50     libcpmt:winapinls.obj
 0002:00002f5c       ??_C@_1M@IGEOFBG@?$AAe?$AAn?$AA?9?$AAN?$AAZ?$AA?$AA@ 0042af5c     libcpmt:winapinls.obj
 0002:00002f68       ??_C@_1M@KDBONEHP@?$AAe?$AAs?$AA?9?$AAC?$AAR?$AA?$AA@ 0042af68     libcpmt:winapinls.obj
 0002:00002f74       ??_C@_1M@FHMDOHNN@?$AAf?$AAr?$AA?9?$AAL?$AAU?$AA?$AA@ 0042af74     libcpmt:winapinls.obj
 0002:00002f80       ??_C@_1BG@NFKKMAFG@?$AAb?$AAs?$AA?9?$AAB?$AAA?$AA?9?$AAL?$AAa?$AAt?$AAn?$AA?$AA@ 0042af80     libcpmt:winapinls.obj
 0002:00002f98       ??_C@_1O@IMNBEMCI@?$AAs?$AAm?$AAj?$AA?9?$AAS?$AAE?$AA?$AA@ 0042af98     libcpmt:winapinls.obj
 0002:00002fa8       ??_C@_1M@DHHMBNDP@?$AAa?$AAr?$AA?9?$AAM?$AAA?$AA?$AA@ 0042afa8     libcpmt:winapinls.obj
 0002:00002fb4       ??_C@_1M@BNBLJCGH@?$AAe?$AAn?$AA?9?$AAI?$AAE?$AA?$AA@ 0042afb4     libcpmt:winapinls.obj
 0002:00002fc0       ??_C@_1M@GEPAFMDL@?$AAe?$AAs?$AA?9?$AAP?$AAA?$AA?$AA@ 0042afc0     libcpmt:winapinls.obj
 0002:00002fcc       ??_C@_1M@OJONDMDL@?$AAf?$AAr?$AA?9?$AAM?$AAC?$AA?$AA@ 0042afcc     libcpmt:winapinls.obj
 0002:00002fd8       ??_C@_1BG@OBCNFJB@?$AAs?$AAr?$AA?9?$AAB?$AAA?$AA?9?$AAL?$AAa?$AAt?$AAn?$AA?$AA@ 0042afd8     libcpmt:winapinls.obj
 0002:00002ff0       ??_C@_1O@KEMEEGPO@?$AAs?$AAm?$AAa?$AA?9?$AAN?$AAO?$AA?$AA@ 0042aff0     libcpmt:winapinls.obj
 0002:00003000       ??_C@_1M@ELMGFODK@?$AAa?$AAr?$AA?9?$AAT?$AAN?$AA?$AA@ 0042b000     libcpmt:winapinls.obj
 0002:0000300c       ??_C@_1M@BHDLHFAF@?$AAe?$AAn?$AA?9?$AAZ?$AAA?$AA?$AA@ 0042b00c     libcpmt:winapinls.obj
 0002:00003018       ??_C@_1M@BMGIGLIF@?$AAe?$AAs?$AA?9?$AAD?$AAO?$AA?$AA@ 0042b018     libcpmt:winapinls.obj
 0002:00003024       ??_C@_1BG@CMBHIPBE@?$AAs?$AAr?$AA?9?$AAB?$AAA?$AA?9?$AAC?$AAy?$AAr?$AAl?$AA?$AA@ 0042b024     libcpmt:winapinls.obj
 0002:0000303c       ??_C@_1O@HEDBLHNP@?$AAs?$AAm?$AAa?$AA?9?$AAS?$AAE?$AA?$AA@ 0042b03c     libcpmt:winapinls.obj
 0002:0000304c       ??_C@_1M@DAGCADIM@?$AAa?$AAr?$AA?9?$AAO?$AAM?$AA?$AA@ 0042b04c     libcpmt:winapinls.obj
 0002:00003058       ??_C@_1M@FODLMICG@?$AAe?$AAn?$AA?9?$AAJ?$AAM?$AA?$AA@ 0042b058     libcpmt:winapinls.obj
 0002:00003064       ??_C@_1M@DNMLCIHB@?$AAe?$AAs?$AA?9?$AAV?$AAE?$AA?$AA@ 0042b064     libcpmt:winapinls.obj
 0002:00003070       ??_C@_1O@EOKHMKJK@?$AAs?$AAm?$AAs?$AA?9?$AAF?$AAI?$AA?$AA@ 0042b070     libcpmt:winapinls.obj
 0002:00003080       ??_C@_1M@CAFJMKOF@?$AAa?$AAr?$AA?9?$AAY?$AAE?$AA?$AA@ 0042b080     libcpmt:winapinls.obj
 0002:0000308c       ??_C@_1M@CBFHIJLI@?$AAe?$AAn?$AA?9?$AAC?$AAB?$AA?$AA@ 0042b08c     libcpmt:winapinls.obj
 0002:00003098       ??_C@_1M@BGNFLDN@?$AAe?$AAs?$AA?9?$AAC?$AAO?$AA?$AA@ 0042b098     libcpmt:winapinls.obj
 0002:000030a4       ??_C@_1O@JMPHMAMC@?$AAs?$AAm?$AAn?$AA?9?$AAF?$AAI?$AA?$AA@ 0042b0a4     libcpmt:winapinls.obj
 0002:000030b4       ??_C@_1M@JLANABKE@?$AAa?$AAr?$AA?9?$AAS?$AAY?$AA?$AA@ 0042b0b4     libcpmt:winapinls.obj
 0002:000030c0       ??_C@_1M@HPKGCFGN@?$AAe?$AAn?$AA?9?$AAB?$AAZ?$AA?$AA@ 0042b0c0     libcpmt:winapinls.obj
 0002:000030cc       ??_C@_1M@OLJCMLGM@?$AAe?$AAs?$AA?9?$AAP?$AAE?$AA?$AA@ 0042b0cc     libcpmt:winapinls.obj
 0002:000030d8       ??_C@_1M@MKKGFKLE@?$AAa?$AAr?$AA?9?$AAJ?$AAO?$AA?$AA@ 0042b0d8     libcpmt:winapinls.obj
 0002:000030e4       ??_C@_1M@EKPGLDNI@?$AAe?$AAn?$AA?9?$AAT?$AAT?$AA?$AA@ 0042b0e4     libcpmt:winapinls.obj
 0002:000030f0       ??_C@_1M@OONGHFHE@?$AAe?$AAs?$AA?9?$AAA?$AAR?$AA?$AA@ 0042b0f0     libcpmt:winapinls.obj
 0002:000030fc       ??_C@_1M@OOJFGBHE@?$AAa?$AAr?$AA?9?$AAL?$AAB?$AA?$AA@ 0042b0fc     libcpmt:winapinls.obj
 0002:00003108       ??_C@_1M@GCEJHNEG@?$AAe?$AAn?$AA?9?$AAZ?$AAW?$AA?$AA@ 0042b108     libcpmt:winapinls.obj
 0002:00003114       ??_C@_1M@JNOCAHJI@?$AAe?$AAs?$AA?9?$AAE?$AAC?$AA?$AA@ 0042b114     libcpmt:winapinls.obj
 0002:00003120       ??_C@_1M@JEFHPGGB@?$AAa?$AAr?$AA?9?$AAK?$AAW?$AA?$AA@ 0042b120     libcpmt:winapinls.obj
 0002:0000312c       ??_C@_1M@MLKIBJOJ@?$AAe?$AAn?$AA?9?$AAP?$AAH?$AA?$AA@ 0042b12c     libcpmt:winapinls.obj
 0002:00003138       ??_C@_1M@BDNIPEND@?$AAe?$AAs?$AA?9?$AAC?$AAL?$AA?$AA@ 0042b138     libcpmt:winapinls.obj
 0002:00003144       ??_C@_1M@MPNMEKBD@?$AAa?$AAr?$AA?9?$AAA?$AAE?$AA?$AA@ 0042b144     libcpmt:winapinls.obj
 0002:00003150       ??_C@_1M@KBJALCPI@?$AAe?$AAs?$AA?9?$AAU?$AAY?$AA?$AA@ 0042b150     libcpmt:winapinls.obj
 0002:0000315c       ??_C@_1M@LLCCOAGA@?$AAa?$AAr?$AA?9?$AAB?$AAH?$AA?$AA@ 0042b15c     libcpmt:winapinls.obj
 0002:00003168       ??_C@_1M@PBFNCDEL@?$AAe?$AAs?$AA?9?$AAP?$AAY?$AA?$AA@ 0042b168     libcpmt:winapinls.obj
 0002:00003174       ??_C@_1M@EDGINPNP@?$AAa?$AAr?$AA?9?$AAQ?$AAA?$AA?$AA@ 0042b174     libcpmt:winapinls.obj
 0002:00003180       ??_C@_1M@MKDBIIJI@?$AAe?$AAs?$AA?9?$AAB?$AAO?$AA?$AA@ 0042b180     libcpmt:winapinls.obj
 0002:0000318c       ??_C@_1M@CPKKEBLD@?$AAe?$AAs?$AA?9?$AAS?$AAV?$AA?$AA@ 0042b18c     libcpmt:winapinls.obj
 0002:00003198       ??_C@_1M@NDBGMMJL@?$AAe?$AAs?$AA?9?$AAH?$AAN?$AA?$AA@ 0042b198     libcpmt:winapinls.obj
 0002:000031a4       ??_C@_1M@JIJIBHDP@?$AAe?$AAs?$AA?9?$AAN?$AAI?$AA?$AA@ 0042b1a4     libcpmt:winapinls.obj
 0002:000031b0       ??_C@_1M@CGFMKEEK@?$AAe?$AAs?$AA?9?$AAP?$AAR?$AA?$AA@ 0042b1b0     libcpmt:winapinls.obj
 0002:000031bc       ??_C@_1O@ICJHKIIK@?$AAz?$AAh?$AA?9?$AAC?$AAH?$AAT?$AA?$AA@ 0042b1bc     libcpmt:winapinls.obj
 0002:000031cc       ??_C@_15CLNEJCE@?$AAs?$AAr?$AA?$AA@ 0042b1cc     libcpmt:winapinls.obj
 0002:000031d4       ??_C@_1M@KAHEKEIG@?$AAa?$AAf?$AA?9?$AAz?$AAa?$AA?$AA@ 0042b1d4     libcpmt:winapinls.obj
 0002:000031e0       ??_C@_1M@GIECOABL@?$AAa?$AAr?$AA?9?$AAa?$AAe?$AA?$AA@ 0042b1e0     libcpmt:winapinls.obj
 0002:000031ec       ??_C@_1M@BMLMEKGI@?$AAa?$AAr?$AA?9?$AAb?$AAh?$AA?$AA@ 0042b1ec     libcpmt:winapinls.obj
 0002:000031f8       ??_C@_1M@DAPFDGGB@?$AAa?$AAr?$AA?9?$AAd?$AAz?$AA?$AA@ 0042b1f8     libcpmt:winapinls.obj
 0002:00003204       ??_C@_1M@FJNKGKIG@?$AAa?$AAr?$AA?9?$AAe?$AAg?$AA?$AA@ 0042b204     libcpmt:winapinls.obj
 0002:00003210       ??_C@_1M@FLGKKCLO@?$AAa?$AAr?$AA?9?$AAi?$AAq?$AA?$AA@ 0042b210     libcpmt:winapinls.obj
 0002:0000321c       ??_C@_1M@GNDIPALM@?$AAa?$AAr?$AA?9?$AAj?$AAo?$AA?$AA@ 0042b21c     libcpmt:winapinls.obj
 0002:00003228       ??_C@_1M@DDMJFMGJ@?$AAa?$AAr?$AA?9?$AAk?$AAw?$AA?$AA@ 0042b228     libcpmt:winapinls.obj
 0002:00003234       ??_C@_1M@EJALMLHM@?$AAa?$AAr?$AA?9?$AAl?$AAb?$AA?$AA@ 0042b234     libcpmt:winapinls.obj
 0002:00003240       ??_C@_1M@MOBDBLOC@?$AAa?$AAr?$AA?9?$AAl?$AAy?$AA?$AA@ 0042b240     libcpmt:winapinls.obj
 0002:0000324c       ??_C@_1M@JAOCLHDH@?$AAa?$AAr?$AA?9?$AAm?$AAa?$AA?$AA@ 0042b24c     libcpmt:winapinls.obj
 0002:00003258       ??_C@_1M@JHPMKJIE@?$AAa?$AAr?$AA?9?$AAo?$AAm?$AA?$AA@ 0042b258     libcpmt:winapinls.obj
 0002:00003264       ??_C@_1M@OEPGHFNH@?$AAa?$AAr?$AA?9?$AAq?$AAa?$AA?$AA@ 0042b264     libcpmt:winapinls.obj
 0002:00003270       ??_C@_1M@KJDONENM@?$AAa?$AAr?$AA?9?$AAs?$AAa?$AA?$AA@ 0042b270     libcpmt:winapinls.obj
 0002:0000327c       ??_C@_1M@DMJDKLKM@?$AAa?$AAr?$AA?9?$AAs?$AAy?$AA?$AA@ 0042b27c     libcpmt:winapinls.obj
 0002:00003288       ??_C@_1M@OMFIPEDC@?$AAa?$AAr?$AA?9?$AAt?$AAn?$AA?$AA@ 0042b288     libcpmt:winapinls.obj
 0002:00003294       ??_C@_1M@IHMHGAON@?$AAa?$AAr?$AA?9?$AAy?$AAe?$AA?$AA@ 0042b294     libcpmt:winapinls.obj
 0002:000032a0       ??_C@_1BG@KDCPGJGB@?$AAa?$AAz?$AA?9?$AAa?$AAz?$AA?9?$AAc?$AAy?$AAr?$AAl?$AA?$AA@ 0042b2a0     libcpmt:winapinls.obj
 0002:000032b8       ??_C@_1BG@IBCKDDOE@?$AAa?$AAz?$AA?9?$AAa?$AAz?$AA?9?$AAl?$AAa?$AAt?$AAn?$AA?$AA@ 0042b2b8     libcpmt:winapinls.obj
 0002:000032d0       ??_C@_1M@EGPFDCPD@?$AAb?$AAe?$AA?9?$AAb?$AAy?$AA?$AA@ 0042b2d0     libcpmt:winapinls.obj
 0002:000032dc       ??_C@_1M@PCMGMCGC@?$AAb?$AAg?$AA?9?$AAb?$AAg?$AA?$AA@ 0042b2dc     libcpmt:winapinls.obj
 0002:000032e8       ??_C@_1M@BJBMFGOB@?$AAb?$AAn?$AA?9?$AAi?$AAn?$AA?$AA@ 0042b2e8     libcpmt:winapinls.obj
 0002:000032f4       ??_C@_1BG@EAKMMACD@?$AAb?$AAs?$AA?9?$AAb?$AAa?$AA?9?$AAl?$AAa?$AAt?$AAn?$AA?$AA@ 0042b2f4     libcpmt:winapinls.obj
 0002:0000330c       ??_C@_1M@KGADAODK@?$AAc?$AAa?$AA?9?$AAe?$AAs?$AA?$AA@ 0042b30c     libcpmt:winapinls.obj
 0002:00003318       ??_C@_1M@COAJPDHI@?$AAc?$AAs?$AA?9?$AAc?$AAz?$AA?$AA@ 0042b318     libcpmt:winapinls.obj
 0002:00003324       ??_C@_1M@DHBHFONH@?$AAc?$AAy?$AA?9?$AAg?$AAb?$AA?$AA@ 0042b324     libcpmt:winapinls.obj
 0002:00003330       ??_C@_1M@IMGKELGA@?$AAd?$AAa?$AA?9?$AAd?$AAk?$AA?$AA@ 0042b330     libcpmt:winapinls.obj
 0002:0000333c       ??_C@_1M@NNDGDNGA@?$AAd?$AAe?$AA?9?$AAa?$AAt?$AA?$AA@ 0042b33c     libcpmt:winapinls.obj
 0002:00003348       ??_C@_1M@IKDBHEEM@?$AAd?$AAe?$AA?9?$AAc?$AAh?$AA?$AA@ 0042b348     libcpmt:winapinls.obj
 0002:00003354       ??_C@_1M@GFFOJMCJ@?$AAd?$AAe?$AA?9?$AAd?$AAe?$AA?$AA@ 0042b354     libcpmt:winapinls.obj
 0002:00003360       ??_C@_1M@MDNLKBPM@?$AAd?$AAe?$AA?9?$AAl?$AAi?$AA?$AA@ 0042b360     libcpmt:winapinls.obj
 0002:0000336c       ??_C@_1M@NJBEEJNL@?$AAd?$AAe?$AA?9?$AAl?$AAu?$AA?$AA@ 0042b36c     libcpmt:winapinls.obj
 0002:00003378       ??_C@_1O@GNNELBAP@?$AAd?$AAi?$AAv?$AA?9?$AAm?$AAv?$AA?$AA@ 0042b378     libcpmt:winapinls.obj
 0002:00003388       ??_C@_1M@EJLEOGAE@?$AAe?$AAl?$AA?9?$AAg?$AAr?$AA?$AA@ 0042b388     libcpmt:winapinls.obj
 0002:00003394       ??_C@_1M@GMPONJN@?$AAe?$AAn?$AA?9?$AAa?$AAu?$AA?$AA@ 0042b394     libcpmt:winapinls.obj
 0002:000033a0       ??_C@_1M@NIDIIPGF@?$AAe?$AAn?$AA?9?$AAb?$AAz?$AA?$AA@ 0042b3a0     libcpmt:winapinls.obj
 0002:000033ac       ??_C@_1M@JEHMIMFO@?$AAe?$AAn?$AA?9?$AAc?$AAa?$AA?$AA@ 0042b3ac     libcpmt:winapinls.obj
 0002:000033b8       ??_C@_1M@IGMJCDLA@?$AAe?$AAn?$AA?9?$AAc?$AAb?$AA?$AA@ 0042b3b8     libcpmt:winapinls.obj
 0002:000033c4       ??_C@_1M@BNFIGBKG@?$AAe?$AAn?$AA?9?$AAg?$AAb?$AA?$AA@ 0042b3c4     libcpmt:winapinls.obj
 0002:000033d0       ??_C@_1M@LKIFDIGP@?$AAe?$AAn?$AA?9?$AAi?$AAe?$AA?$AA@ 0042b3d0     libcpmt:winapinls.obj
 0002:000033dc       ??_C@_1M@PJKFGCCO@?$AAe?$AAn?$AA?9?$AAj?$AAm?$AA?$AA@ 0042b3dc     libcpmt:winapinls.obj
 0002:000033e8       ??_C@_1M@KPPKEPBO@?$AAe?$AAn?$AA?9?$AAn?$AAz?$AA?$AA@ 0042b3e8     libcpmt:winapinls.obj
 0002:000033f4       ??_C@_1M@GMDGLDOB@?$AAe?$AAn?$AA?9?$AAp?$AAh?$AA?$AA@ 0042b3f4     libcpmt:winapinls.obj
 0002:00003400       ??_C@_1M@ONGIBJNA@?$AAe?$AAn?$AA?9?$AAt?$AAt?$AA?$AA@ 0042b400     libcpmt:winapinls.obj
 0002:0000340c       ??_C@_1M@LLODPCMM@?$AAe?$AAn?$AA?9?$AAu?$AAs?$AA?$AA@ 0042b40c     libcpmt:winapinls.obj
 0002:00003418       ??_C@_1M@LAKFNPAN@?$AAe?$AAn?$AA?9?$AAz?$AAa?$AA?$AA@ 0042b418     libcpmt:winapinls.obj
 0002:00003424       ??_C@_1M@MFNHNHEO@?$AAe?$AAn?$AA?9?$AAz?$AAw?$AA?$AA@ 0042b424     libcpmt:winapinls.obj
 0002:00003430       ??_C@_1M@EJEINPHM@?$AAe?$AAs?$AA?9?$AAa?$AAr?$AA?$AA@ 0042b430     libcpmt:winapinls.obj
 0002:0000343c       ??_C@_1M@GNKPCCJA@?$AAe?$AAs?$AA?9?$AAb?$AAo?$AA?$AA@ 0042b43c     libcpmt:winapinls.obj
 0002:00003448       ??_C@_1M@LEEGFONL@?$AAe?$AAs?$AA?9?$AAc?$AAl?$AA?$AA@ 0042b448     libcpmt:winapinls.obj
 0002:00003454       ??_C@_1M@KGPDPBDF@?$AAe?$AAs?$AA?9?$AAc?$AAo?$AA?$AA@ 0042b454     libcpmt:winapinls.obj
 0002:00003460       ??_C@_1M@EIAHOHH@?$AAe?$AAs?$AA?9?$AAc?$AAr?$AA?$AA@ 0042b460     libcpmt:winapinls.obj
 0002:0000346c       ??_C@_1M@LLPGMBIN@?$AAe?$AAs?$AA?9?$AAd?$AAo?$AA?$AA@ 0042b46c     libcpmt:winapinls.obj
 0002:00003478       ??_C@_1M@DKHMKNJA@?$AAe?$AAs?$AA?9?$AAe?$AAc?$AA?$AA@ 0042b478     libcpmt:winapinls.obj
 0002:00003484       ??_C@_1M@GKGFPKAP@?$AAe?$AAs?$AA?9?$AAe?$AAs?$AA?$AA@ 0042b484     libcpmt:winapinls.obj
 0002:00003490       ??_C@_1M@LKHKGDLN@?$AAe?$AAs?$AA?9?$AAg?$AAt?$AA?$AA@ 0042b490     libcpmt:winapinls.obj
 0002:0000349c       ??_C@_1M@HEIIGGJD@?$AAe?$AAs?$AA?9?$AAh?$AAn?$AA?$AA@ 0042b49c     libcpmt:winapinls.obj
 0002:000034a8       ??_C@_1M@FBDHPPGD@?$AAe?$AAs?$AA?9?$AAm?$AAx?$AA?$AA@ 0042b4a8     libcpmt:winapinls.obj
 0002:000034b4       ??_C@_1M@DPAGLNDH@?$AAe?$AAs?$AA?9?$AAn?$AAi?$AA?$AA@ 0042b4b4     libcpmt:winapinls.obj
 0002:000034c0       ??_C@_1M@MDGOPGDD@?$AAe?$AAs?$AA?9?$AAp?$AAa?$AA?$AA@ 0042b4c0     libcpmt:winapinls.obj
 0002:000034cc       ??_C@_1M@EMAMGBGE@?$AAe?$AAs?$AA?9?$AAp?$AAe?$AA?$AA@ 0042b4cc     libcpmt:winapinls.obj
 0002:000034d8       ??_C@_1M@IBMCAOEC@?$AAe?$AAs?$AA?9?$AAp?$AAr?$AA?$AA@ 0042b4d8     libcpmt:winapinls.obj
 0002:000034e4       ??_C@_1M@FGMDIJED@?$AAe?$AAs?$AA?9?$AAp?$AAy?$AA?$AA@ 0042b4e4     libcpmt:winapinls.obj
 0002:000034f0       ??_C@_1M@IIDEOLLL@?$AAe?$AAs?$AA?9?$AAs?$AAv?$AA?$AA@ 0042b4f0     libcpmt:winapinls.obj
 0002:000034fc       ??_C@_1M@GAOBIPA@?$AAe?$AAs?$AA?9?$AAu?$AAy?$AA?$AA@ 0042b4fc     libcpmt:winapinls.obj
 0002:00003508       ??_C@_1M@JKFFICHJ@?$AAe?$AAs?$AA?9?$AAv?$AAe?$AA?$AA@ 0042b508     libcpmt:winapinls.obj
 0002:00003514       ??_C@_1M@PNMLOJDF@?$AAe?$AAt?$AA?9?$AAe?$AAe?$AA?$AA@ 0042b514     libcpmt:winapinls.obj
 0002:00003520       ??_C@_1M@GHHLIKEI@?$AAe?$AAu?$AA?9?$AAe?$AAs?$AA?$AA@ 0042b520     libcpmt:winapinls.obj
 0002:0000352c       ??_C@_1M@PBNONODE@?$AAf?$AAa?$AA?9?$AAi?$AAr?$AA?$AA@ 0042b52c     libcpmt:winapinls.obj
 0002:00003538       ??_C@_1M@JEEHPMIL@?$AAf?$AAi?$AA?9?$AAf?$AAi?$AA?$AA@ 0042b538     libcpmt:winapinls.obj
 0002:00003544       ??_C@_1M@LMDCNDBA@?$AAf?$AAo?$AA?9?$AAf?$AAo?$AA?$AA@ 0042b544     libcpmt:winapinls.obj
 0002:00003550       ??_C@_1M@JKEOHLDK@?$AAf?$AAr?$AA?9?$AAb?$AAe?$AA?$AA@ 0042b550     libcpmt:winapinls.obj
 0002:0000355c       ??_C@_1M@NOHADPMI@?$AAf?$AAr?$AA?9?$AAc?$AAa?$AA?$AA@ 0042b55c     libcpmt:winapinls.obj
 0002:00003568       ??_C@_1M@KDHIHAEC@?$AAf?$AAr?$AA?9?$AAc?$AAh?$AA?$AA@ 0042b568     libcpmt:winapinls.obj
 0002:00003574       ??_C@_1M@MMBBFGAK@?$AAf?$AAr?$AA?9?$AAf?$AAr?$AA?$AA@ 0042b574     libcpmt:winapinls.obj
 0002:00003580       ??_C@_1M@PAFNENNF@?$AAf?$AAr?$AA?9?$AAl?$AAu?$AA?$AA@ 0042b580     libcpmt:winapinls.obj
 0002:0000358c       ??_C@_1M@EOHDJGDD@?$AAf?$AAr?$AA?9?$AAm?$AAc?$AA?$AA@ 0042b58c     libcpmt:winapinls.obj
 0002:00003598       ??_C@_1M@FAPLLOPF@?$AAg?$AAl?$AA?9?$AAe?$AAs?$AA?$AA@ 0042b598     libcpmt:winapinls.obj
 0002:000035a4       ??_C@_1M@FOPBFLOO@?$AAg?$AAu?$AA?9?$AAi?$AAn?$AA?$AA@ 0042b5a4     libcpmt:winapinls.obj
 0002:000035b0       ??_C@_1M@KBMCINPM@?$AAh?$AAe?$AA?9?$AAi?$AAl?$AA?$AA@ 0042b5b0     libcpmt:winapinls.obj
 0002:000035bc       ??_C@_1M@BBPHKFPJ@?$AAh?$AAi?$AA?9?$AAi?$AAn?$AA?$AA@ 0042b5bc     libcpmt:winapinls.obj
 0002:000035c8       ??_C@_1M@PMBNDPHD@?$AAh?$AAr?$AA?9?$AAb?$AAa?$AA?$AA@ 0042b5c8     libcpmt:winapinls.obj
 0002:000035d4       ??_C@_1M@BPCKOEGE@?$AAh?$AAr?$AA?9?$AAh?$AAr?$AA?$AA@ 0042b5d4     libcpmt:winapinls.obj
 0002:000035e0       ??_C@_1M@GACBMHKE@?$AAh?$AAu?$AA?9?$AAh?$AAu?$AA?$AA@ 0042b5e0     libcpmt:winapinls.obj
 0002:000035ec       ??_C@_1M@MILPAJJC@?$AAh?$AAy?$AA?9?$AAa?$AAm?$AA?$AA@ 0042b5ec     libcpmt:winapinls.obj
 0002:000035f8       ??_C@_1M@BABBICEC@?$AAi?$AAd?$AA?9?$AAi?$AAd?$AA?$AA@ 0042b5f8     libcpmt:winapinls.obj
 0002:00003604       ??_C@_1M@BIKNHHPF@?$AAi?$AAs?$AA?9?$AAi?$AAs?$AA?$AA@ 0042b604     libcpmt:winapinls.obj
 0002:00003610       ??_C@_1M@NMPCJPHE@?$AAi?$AAt?$AA?9?$AAc?$AAh?$AA?$AA@ 0042b610     libcpmt:winapinls.obj
 0002:0000361c       ??_C@_1M@GHKGFEDF@?$AAi?$AAt?$AA?9?$AAi?$AAt?$AA?$AA@ 0042b61c     libcpmt:winapinls.obj
 0002:00003628       ??_C@_1M@NIEJCJJA@?$AAj?$AAa?$AA?9?$AAj?$AAp?$AA?$AA@ 0042b628     libcpmt:winapinls.obj
 0002:00003634       ??_C@_1M@JILFNBIM@?$AAk?$AAa?$AA?9?$AAg?$AAe?$AA?$AA@ 0042b634     libcpmt:winapinls.obj
 0002:00003640       ??_C@_1M@PACPMGPH@?$AAk?$AAk?$AA?9?$AAk?$AAz?$AA?$AA@ 0042b640     libcpmt:winapinls.obj
 0002:0000364c       ??_C@_1M@IELFGMHA@?$AAk?$AAn?$AA?9?$AAi?$AAn?$AA?$AA@ 0042b64c     libcpmt:winapinls.obj
 0002:00003658       ??_C@_1M@DMHAEOGC@?$AAk?$AAo?$AA?9?$AAk?$AAr?$AA?$AA@ 0042b658     libcpmt:winapinls.obj
 0002:00003664       ??_C@_1O@IBBJHCH@?$AAk?$AAo?$AAk?$AA?9?$AAi?$AAn?$AA?$AA@ 0042b664     libcpmt:winapinls.obj
 0002:00003674       ??_C@_1M@HBAHBIGA@?$AAk?$AAy?$AA?9?$AAk?$AAg?$AA?$AA@ 0042b674     libcpmt:winapinls.obj
 0002:00003680       ??_C@_1M@KPMILCJG@?$AAl?$AAt?$AA?9?$AAl?$AAt?$AA?$AA@ 0042b680     libcpmt:winapinls.obj
 0002:0000368c       ??_C@_1M@BDEKKCA@?$AAl?$AAv?$AA?9?$AAl?$AAv?$AA?$AA@ 0042b68c     libcpmt:winapinls.obj
 0002:00003698       ??_C@_1M@ELCKCCJJ@?$AAm?$AAi?$AA?9?$AAn?$AAz?$AA?$AA@ 0042b698     libcpmt:winapinls.obj
 0002:000036a4       ??_C@_1M@CBOOLAPA@?$AAm?$AAk?$AA?9?$AAm?$AAk?$AA?$AA@ 0042b6a4     libcpmt:winapinls.obj
 0002:000036b0       ??_C@_1M@GPHNBJKN@?$AAm?$AAl?$AA?9?$AAi?$AAn?$AA?$AA@ 0042b6b0     libcpmt:winapinls.obj
 0002:000036bc       ??_C@_1M@PABJILIG@?$AAm?$AAn?$AA?9?$AAm?$AAn?$AA?$AA@ 0042b6bc     libcpmt:winapinls.obj
 0002:000036c8       ??_C@_1M@FGBKKIPG@?$AAm?$AAr?$AA?9?$AAi?$AAn?$AA?$AA@ 0042b6c8     libcpmt:winapinls.obj
 0002:000036d4       ??_C@_1M@NDBPDDAL@?$AAm?$AAs?$AA?9?$AAb?$AAn?$AA?$AA@ 0042b6d4     libcpmt:winapinls.obj
 0002:000036e0       ??_C@_1M@OPIHOOPI@?$AAm?$AAs?$AA?9?$AAm?$AAy?$AA?$AA@ 0042b6e0     libcpmt:winapinls.obj
 0002:000036ec       ??_C@_1M@PPDBCNFM@?$AAm?$AAt?$AA?9?$AAm?$AAt?$AA?$AA@ 0042b6ec     libcpmt:winapinls.obj
 0002:000036f8       ??_C@_1M@KDJDKMDD@?$AAn?$AAb?$AA?9?$AAn?$AAo?$AA?$AA@ 0042b6f8     libcpmt:winapinls.obj
 0002:00003704       ??_C@_1M@KFCFLMJP@?$AAn?$AAl?$AA?9?$AAb?$AAe?$AA?$AA@ 0042b704     libcpmt:winapinls.obj
 0002:00003710       ??_C@_1M@KPOPDDGO@?$AAn?$AAl?$AA?9?$AAn?$AAl?$AA?$AA@ 0042b710     libcpmt:winapinls.obj
 0002:0000371c       ??_C@_1M@LJKPEMLN@?$AAn?$AAn?$AA?9?$AAn?$AAo?$AA?$AA@ 0042b71c     libcpmt:winapinls.obj
 0002:00003728       ??_C@_1M@BDGHHBFL@?$AAn?$AAs?$AA?9?$AAz?$AAa?$AA?$AA@ 0042b728     libcpmt:winapinls.obj
 0002:00003734       ??_C@_1M@IDEHOAP@?$AAp?$AAa?$AA?9?$AAi?$AAn?$AA?$AA@ 0042b734     libcpmt:winapinls.obj
 0002:00003740       ??_C@_1M@HDBKGOGH@?$AAp?$AAl?$AA?9?$AAp?$AAl?$AA?$AA@ 0042b740     libcpmt:winapinls.obj
 0002:0000374c       ??_C@_1M@LJLLCMEH@?$AAp?$AAt?$AA?9?$AAb?$AAr?$AA?$AA@ 0042b74c     libcpmt:winapinls.obj
 0002:00003758       ??_C@_1M@NCMONAAL@?$AAp?$AAt?$AA?9?$AAp?$AAt?$AA?$AA@ 0042b758     libcpmt:winapinls.obj
 0002:00003764       ??_C@_1O@EAKMAJDN@?$AAq?$AAu?$AAz?$AA?9?$AAb?$AAo?$AA?$AA@ 0042b764     libcpmt:winapinls.obj
 0002:00003774       ??_C@_1O@BHHPIGDN@?$AAq?$AAu?$AAz?$AA?9?$AAe?$AAc?$AA?$AA@ 0042b774     libcpmt:winapinls.obj
 0002:00003784       ??_C@_1O@GBAPEKMJ@?$AAq?$AAu?$AAz?$AA?9?$AAp?$AAe?$AA?$AA@ 0042b784     libcpmt:winapinls.obj
 0002:00003794       ??_C@_1M@CLGLEFBO@?$AAr?$AAo?$AA?9?$AAr?$AAo?$AA?$AA@ 0042b794     libcpmt:winapinls.obj
 0002:000037a0       ??_C@_1M@CEEDODME@?$AAr?$AAu?$AA?9?$AAr?$AAu?$AA?$AA@ 0042b7a0     libcpmt:winapinls.obj
 0002:000037ac       ??_C@_1M@HPKKKMPP@?$AAs?$AAa?$AA?9?$AAi?$AAn?$AA?$AA@ 0042b7ac     libcpmt:winapinls.obj
 0002:000037b8       ??_C@_1M@BKMAIGOJ@?$AAs?$AAe?$AA?9?$AAf?$AAi?$AA?$AA@ 0042b7b8     libcpmt:winapinls.obj
 0002:000037c4       ??_C@_1M@NDPIFLFI@?$AAs?$AAe?$AA?9?$AAn?$AAo?$AA?$AA@ 0042b7c4     libcpmt:winapinls.obj
 0002:000037d0       ??_C@_1M@DANKKHJ@?$AAs?$AAe?$AA?9?$AAs?$AAe?$AA?$AA@ 0042b7d0     libcpmt:winapinls.obj
 0002:000037dc       ??_C@_1M@PNBLONPJ@?$AAs?$AAk?$AA?9?$AAs?$AAk?$AA?$AA@ 0042b7dc     libcpmt:winapinls.obj
 0002:000037e8       ??_C@_1M@LFMODOAL@?$AAs?$AAl?$AA?9?$AAs?$AAi?$AA?$AA@ 0042b7e8     libcpmt:winapinls.obj
 0002:000037f4       ??_C@_1O@DFKOMPG@?$AAs?$AAm?$AAa?$AA?9?$AAn?$AAo?$AA?$AA@ 0042b7f4     libcpmt:winapinls.obj
 0002:00003804       ??_C@_1O@NDKPBNNH@?$AAs?$AAm?$AAa?$AA?9?$AAs?$AAe?$AA?$AA@ 0042b804     libcpmt:winapinls.obj
 0002:00003814       ??_C@_1O@PLLKBHAB@?$AAs?$AAm?$AAj?$AA?9?$AAn?$AAo?$AA?$AA@ 0042b814     libcpmt:winapinls.obj
 0002:00003824       ??_C@_1O@CLEPOGCA@?$AAs?$AAm?$AAj?$AA?9?$AAs?$AAe?$AA?$AA@ 0042b824     libcpmt:winapinls.obj
 0002:00003834       ??_C@_1O@DLGJGKMK@?$AAs?$AAm?$AAn?$AA?9?$AAf?$AAi?$AA?$AA@ 0042b834     libcpmt:winapinls.obj
 0002:00003844       ??_C@_1O@OJDJGAJC@?$AAs?$AAm?$AAs?$AA?9?$AAf?$AAi?$AA?$AA@ 0042b844     libcpmt:winapinls.obj
 0002:00003854       ??_C@_1M@BOFOGHPB@?$AAs?$AAq?$AA?9?$AAa?$AAl?$AA?$AA@ 0042b854     libcpmt:winapinls.obj
 0002:00003860       ??_C@_1BG@LJBBIPGB@?$AAs?$AAr?$AA?9?$AAb?$AAa?$AA?9?$AAc?$AAy?$AAr?$AAl?$AA?$AA@ 0042b860     libcpmt:winapinls.obj
 0002:00003878       ??_C@_1BG@JLBENFOE@?$AAs?$AAr?$AA?9?$AAb?$AAa?$AA?9?$AAl?$AAa?$AAt?$AAn?$AA?$AA@ 0042b878     libcpmt:winapinls.obj
 0002:00003890       ??_C@_1BG@KODPNHE@?$AAs?$AAr?$AA?9?$AAs?$AAp?$AA?9?$AAc?$AAy?$AAr?$AAl?$AA?$AA@ 0042b890     libcpmt:winapinls.obj
 0002:000038a8       ??_C@_1BG@CIOGKHPB@?$AAs?$AAr?$AA?9?$AAs?$AAp?$AA?9?$AAl?$AAa?$AAt?$AAn?$AA?$AA@ 0042b8a8     libcpmt:winapinls.obj
 0002:000038c0       ??_C@_1M@NGFJLMAC@?$AAs?$AAv?$AA?9?$AAf?$AAi?$AA?$AA@ 0042b8c0     libcpmt:winapinls.obj
 0002:000038cc       ??_C@_1M@MPJEJAJC@?$AAs?$AAv?$AA?9?$AAs?$AAe?$AA?$AA@ 0042b8cc     libcpmt:winapinls.obj
 0002:000038d8       ??_C@_1M@MPNDHLFK@?$AAs?$AAw?$AA?9?$AAk?$AAe?$AA?$AA@ 0042b8d8     libcpmt:winapinls.obj
 0002:000038e4       ??_C@_1O@KOHBJJI@?$AAs?$AAy?$AAr?$AA?9?$AAs?$AAy?$AA?$AA@ 0042b8e4     libcpmt:winapinls.obj
 0002:000038f4       ??_C@_1M@LDCEFHA@?$AAt?$AAa?$AA?9?$AAi?$AAn?$AA?$AA@ 0042b8f4     libcpmt:winapinls.obj
 0002:00003900       ??_C@_1M@CNJOFAK@?$AAt?$AAe?$AA?9?$AAi?$AAn?$AA?$AA@ 0042b900     libcpmt:winapinls.obj
 0002:0000390c       ??_C@_1M@GNAECACD@?$AAt?$AAh?$AA?9?$AAt?$AAh?$AA?$AA@ 0042b90c     libcpmt:winapinls.obj
 0002:00003918       ??_C@_1M@CHBIHOJO@?$AAt?$AAn?$AA?9?$AAz?$AAa?$AA?$AA@ 0042b918     libcpmt:winapinls.obj
 0002:00003924       ??_C@_1M@GCCMIGPJ@?$AAt?$AAr?$AA?9?$AAt?$AAr?$AA?$AA@ 0042b924     libcpmt:winapinls.obj
 0002:00003930       ??_C@_1M@CELMCNBK@?$AAt?$AAt?$AA?9?$AAr?$AAu?$AA?$AA@ 0042b930     libcpmt:winapinls.obj
 0002:0000393c       ??_C@_1M@KLMCELGA@?$AAu?$AAk?$AA?9?$AAu?$AAa?$AA?$AA@ 0042b93c     libcpmt:winapinls.obj
 0002:00003948       ??_C@_1M@EPAJJAJF@?$AAu?$AAr?$AA?9?$AAp?$AAk?$AA?$AA@ 0042b948     libcpmt:winapinls.obj
 0002:00003954       ??_C@_1BG@GEGPMCDJ@?$AAu?$AAz?$AA?9?$AAu?$AAz?$AA?9?$AAc?$AAy?$AAr?$AAl?$AA?$AA@ 0042b954     libcpmt:winapinls.obj
 0002:0000396c       ??_C@_1BG@EGGKJILM@?$AAu?$AAz?$AA?9?$AAu?$AAz?$AA?9?$AAl?$AAa?$AAt?$AAn?$AA?$AA@ 0042b96c     libcpmt:winapinls.obj
 0002:00003984       ??_C@_1M@GFOCLFF@?$AAv?$AAi?$AA?9?$AAv?$AAn?$AA?$AA@ 0042b984     libcpmt:winapinls.obj
 0002:00003990       ??_C@_1M@CPAMEDFI@?$AAx?$AAh?$AA?9?$AAz?$AAa?$AA?$AA@ 0042b990     libcpmt:winapinls.obj
 0002:0000399c       ??_C@_1O@EBKIFIGN@?$AAz?$AAh?$AA?9?$AAc?$AAh?$AAs?$AA?$AA@ 0042b99c     libcpmt:winapinls.obj
 0002:000039ac       ??_C@_1O@NMHPGANE@?$AAz?$AAh?$AA?9?$AAc?$AAh?$AAt?$AA?$AA@ 0042b9ac     libcpmt:winapinls.obj
 0002:000039bc       ??_C@_1M@LPINJOMC@?$AAz?$AAh?$AA?9?$AAc?$AAn?$AA?$AA@ 0042b9bc     libcpmt:winapinls.obj
 0002:000039c8       ??_C@_1M@OCJEJODD@?$AAz?$AAh?$AA?9?$AAh?$AAk?$AA?$AA@ 0042b9c8     libcpmt:winapinls.obj
 0002:000039d4       ??_C@_1M@DNDLJINH@?$AAz?$AAh?$AA?9?$AAm?$AAo?$AA?$AA@ 0042b9d4     libcpmt:winapinls.obj
 0002:000039e0       ??_C@_1M@MBFDNDND@?$AAz?$AAh?$AA?9?$AAs?$AAg?$AA?$AA@ 0042b9e0     libcpmt:winapinls.obj
 0002:000039ec       ??_C@_1M@IMEPLEPE@?$AAz?$AAh?$AA?9?$AAt?$AAw?$AA?$AA@ 0042b9ec     libcpmt:winapinls.obj
 0002:000039f8       ??_C@_1M@BBGHNHJP@?$AAz?$AAu?$AA?9?$AAz?$AAa?$AA?$AA@ 0042b9f8     libcpmt:winapinls.obj
 0002:00003a04       ??_C@_01JOAMLHOP@?9?$AA@   0042ba04     libcpmt:wlocale.obj
 0002:00003ab4       ??_7type_info@@6B@         0042bab4     LIBCMT:std_type_info_static.obj
 0002:00003abc       ??_7bad_array_new_length@std@@6B@ 0042babc     LIBCMT:throw_bad_alloc.obj
 0002:00003ac4       ??_C@_0BF@KINCDENJ@bad?5array?5new?5length?$AA@ 0042bac4     LIBCMT:throw_bad_alloc.obj
 0002:00003afc       __pDestructExceptionObject 0042bafc     libvcruntime:frame.obj
 0002:00003b04       ??_7bad_exception@std@@6B@ 0042bb04     libvcruntime:frame.obj
 0002:00003b0c       ??_C@_0O@DPKOEFFH@bad?5exception?$AA@ 0042bb0c     libvcruntime:frame.obj
 0002:00003b2c       ??_C@_1BC@DNHGCMLG@?$AAa?$AAd?$AAv?$AAa?$AAp?$AAi?$AA3?$AA2?$AA?$AA@ 0042bb2c     libvcruntime:winapi_downlevel.obj
 0002:00003b40       ??_C@_1DM@KHCHBNEB@?$AAa?$AAp?$AAi?$AA?9?$AAm?$AAs?$AA?9?$AAw?$AAi?$AAn?$AA?9?$AAc?$AAo?$AAr?$AAe?$AA?9?$AAf?$AAi?$AAb?$AAe?$AAr?$AAs?$AA?9?$AAl?$AA1?$AA?9?$AA1?$AA?9?$AA1?$AA?$AA@ 0042bb40     libvcruntime:winapi_downlevel.obj
 0002:00003b7c       ??_C@_1DK@LPPGFMPP@?$AAa?$AAp?$AAi?$AA?9?$AAm?$AAs?$AA?9?$AAw?$AAi?$AAn?$AA?9?$AAc?$AAo?$AAr?$AAe?$AA?9?$AAs?$AAy?$AAn?$AAc?$AAh?$AA?9?$AAl?$AA1?$AA?9?$AA2?$AA?9?$AA0?$AA?$AA@ 0042bb7c     libvcruntime:winapi_downlevel.obj
 0002:00003bb8       ??_C@_1BC@GDMECMAK@?$AAk?$AAe?$AAr?$AAn?$AAe?$AAl?$AA3?$AA2?$AA?$AA@ 0042bbb8     libvcruntime:winapi_downlevel.obj
 0002:00003d88       ??_C@_08EHJDFFNH@__based?$CI?$AA@ 0042bd88     libvcruntime:undname.obj
 0002:00003d94       ??_C@_07KOLFKCDI@__cdecl?$AA@ 0042bd94     libvcruntime:undname.obj
 0002:00003d9c       ??_C@_08GHMPAG@__pascal?$AA@ 0042bd9c     libvcruntime:undname.obj
 0002:00003da8       ??_C@_09IFJBGAPI@__stdcall?$AA@ 0042bda8     libvcruntime:undname.obj
 0002:00003db4       ??_C@_0L@NPHFGOKO@__thiscall?$AA@ 0042bdb4     libvcruntime:undname.obj
 0002:00003dc0       ??_C@_0L@JMKHOMEK@__fastcall?$AA@ 0042bdc0     libvcruntime:undname.obj
 0002:00003dcc       ??_C@_0N@BCKKPABJ@__vectorcall?$AA@ 0042bdcc     libvcruntime:undname.obj
 0002:00003ddc       ??_C@_09HIJEGCPM@__clrcall?$AA@ 0042bddc     libvcruntime:undname.obj
 0002:00003de8       ??_C@_06GHPCKEAG@__eabi?$AA@ 0042bde8     libvcruntime:undname.obj
 0002:00003df0       ??_C@_07JOMMBBKO@__ptr64?$AA@ 0042bdf0     libvcruntime:undname.obj
 0002:00003df8       ??_C@_0L@PILCLIHE@__restrict?$AA@ 0042bdf8     libvcruntime:undname.obj
 0002:00003e04       ??_C@_0M@GFIIJFMG@__unaligned?$AA@ 0042be04     libvcruntime:undname.obj
 0002:00003e10       ??_C@_09DHDLOLLB@restrict?$CI?$AA@ 0042be10     libvcruntime:undname.obj
 0002:00003e1c       ??_C@_04NIHEBCM@?5new?$AA@ 0042be1c     libvcruntime:undname.obj
 0002:00003e24       ??_C@_07FPCDHGMM@?5delete?$AA@ 0042be24     libvcruntime:undname.obj
 0002:00003e2c       ??_C@_01NEMOKFLO@?$DN?$AA@ 0042be2c     libvcruntime:undname.obj
 0002:00003e30       ??_C@_02GPIOPFAK@?$DO?$DO?$AA@ 0042be30     libvcruntime:undname.obj
 0002:00003e34       ??_C@_02FODMEDOG@?$DM?$DM?$AA@ 0042be34     libvcruntime:undname.obj
 0002:00003e38       ??_C@_01DCLJPIOD@?$CB?$AA@ 0042be38     libvcruntime:undname.obj
 0002:00003e3c       ??_C@_02EGOFBIJA@?$DN?$DN?$AA@ 0042be3c     libvcruntime:undname.obj
 0002:00003e40       ??_C@_02FDNJECIE@?$CB?$DN?$AA@ 0042be40     libvcruntime:undname.obj
 0002:00003e44       ??_C@_02GPECMEKF@?$FL?$FN?$AA@ 0042be44     libvcruntime:undname.obj
 0002:00003e48       ??_C@_08LHJFAFGD@operator?$AA@ 0042be48     libvcruntime:undname.obj
 0002:00003e54       ??_C@_02HBOOOICD@?9?$DO?$AA@ 0042be54     libvcruntime:undname.obj
 0002:00003e58       ??_C@_02ECNGHCIF@?$CL?$CL?$AA@ 0042be58     libvcruntime:undname.obj
 0002:00003e5c       ??_C@_02BAABKJLB@?9?9?$AA@ 0042be5c     libvcruntime:undname.obj
 0002:00003e60       ??_C@_01MIFGBAGJ@?$CL?$AA@ 0042be60     libvcruntime:undname.obj
 0002:00003e64       ??_C@_01HNPIGOCE@?$CG?$AA@ 0042be64     libvcruntime:undname.obj
 0002:00003e68       ??_C@_03MNHNFDLC@?9?$DO?$CK?$AA@ 0042be68     libvcruntime:undname.obj
 0002:00003e6c       ??_C@_01KMDKNFGN@?1?$AA@   0042be6c     libvcruntime:undname.obj
 0002:00003e70       ??_C@_01FGNFDNOH@?$CF?$AA@ 0042be70     libvcruntime:undname.obj
 0002:00003e74       ??_C@_01MNNFJEPP@?$DM?$AA@ 0042be74     libvcruntime:undname.obj
 0002:00003e78       ??_C@_02EHCHHCKH@?$DM?$DN?$AA@ 0042be78     libvcruntime:undname.obj
 0002:00003e7c       ??_C@_01PPODPGHN@?$DO?$AA@ 0042be7c     libvcruntime:undname.obj
 0002:00003e80       ??_C@_02EEKDKGMJ@?$DO?$DN?$AA@ 0042be80     libvcruntime:undname.obj
 0002:00003e84       ??_C@_01IHBHIGKO@?0?$AA@   0042be84     libvcruntime:undname.obj
 0002:00003e88       ??_C@_02HCKGKOFO@?$CI?$CJ?$AA@ 0042be88     libvcruntime:undname.obj
 0002:00003e8c       ??_C@_01PJKLJHI@?$HO?$AA@  0042be8c     libvcruntime:undname.obj
 0002:00003e90       ??_C@_01JKBOJNNK@?$FO?$AA@ 0042be90     libvcruntime:undname.obj
 0002:00003e94       ??_C@_01DNKMNLPK@?$HM?$AA@ 0042be94     libvcruntime:undname.obj
 0002:00003e98       ??_C@_02PPKAJPJL@?$CG?$CG?$AA@ 0042be98     libvcruntime:undname.obj
 0002:00003e9c       ??_C@_02NONPIBCD@?$HM?$HM?$AA@ 0042be9c     libvcruntime:undname.obj
 0002:00003ea0       ??_C@_02FPIMKNGF@?$CK?$DN?$AA@ 0042bea0     libvcruntime:undname.obj
 0002:00003ea4       ??_C@_02FOEOMHFC@?$CL?$DN?$AA@ 0042bea4     libvcruntime:undname.obj
 0002:00003ea8       ??_C@_02FKMDLLOA@?9?$DN?$AA@ 0042bea8     libvcruntime:undname.obj
 0002:00003eac       ??_C@_02FJEHGPIO@?1?$DN?$AA@ 0042beac     libvcruntime:undname.obj
 0002:00003eb0       ??_C@_02FENAOKFI@?$CF?$DN?$AA@ 0042beb0     libvcruntime:undname.obj
 0002:00003eb4       ??_C@_03IKFCCPFF@?$DO?$DO?$DN?$AA@ 0042beb4     libvcruntime:undname.obj
 0002:00003eb8       ??_C@_03CDNPDDLA@?$DM?$DM?$DN?$AA@ 0042beb8     libvcruntime:undname.obj
 0002:00003ebc       ??_C@_02FGJGFEAB@?$CG?$DN?$AA@ 0042bebc     libvcruntime:undname.obj
 0002:00003ec0       ??_C@_02DHLNPPGH@?$HM?$DN?$AA@ 0042bec0     libvcruntime:undname.obj
 0002:00003ec4       ??_C@_02MHEGNOJ@?$FO?$DN?$AA@ 0042bec4     libvcruntime:undname.obj
 0002:00003ec8       ??_C@_09IFPLHPGF@?$GAvftable?8?$AA@ 0042bec8     libvcruntime:undname.obj
 0002:00003ed4       ??_C@_09BLBHBJP@?$GAvbtable?8?$AA@ 0042bed4     libvcruntime:undname.obj
 0002:00003ee0       ??_C@_07FEEIOKP@?$GAvcall?8?$AA@ 0042bee0     libvcruntime:undname.obj
 0002:00003ee8       ??_C@_08LLFFHHDJ@?$GAtypeof?8?$AA@ 0042bee8     libvcruntime:undname.obj
 0002:00003ef4       ??_C@_0BF@KDPPACIK@?$GAlocal?5static?5guard?8?$AA@ 0042bef4     libvcruntime:undname.obj
 0002:00003f0c       ??_C@_08OBABFOLI@?$GAstring?8?$AA@ 0042bf0c     libvcruntime:undname.obj
 0002:00003f18       ??_C@_0BD@JDLKDPAB@?$GAvbase?5destructor?8?$AA@ 0042bf18     libvcruntime:undname.obj
 0002:00003f2c       ??_C@_0BN@DEGPLNFK@?$GAvector?5deleting?5destructor?8?$AA@ 0042bf2c     libvcruntime:undname.obj
 0002:00003f4c       ??_C@_0BO@OBMKPJIG@?$GAdefault?5constructor?5closure?8?$AA@ 0042bf4c     libvcruntime:undname.obj
 0002:00003f6c       ??_C@_0BN@IMDCHIKM@?$GAscalar?5deleting?5destructor?8?$AA@ 0042bf6c     libvcruntime:undname.obj
 0002:00003f8c       ??_C@_0BO@PFGOCPJJ@?$GAvector?5constructor?5iterator?8?$AA@ 0042bf8c     libvcruntime:undname.obj
 0002:00003fac       ??_C@_0BN@LFPFMEDL@?$GAvector?5destructor?5iterator?8?$AA@ 0042bfac     libvcruntime:undname.obj
 0002:00003fcc       ??_C@_0CE@IKBNEHA@?$GAvector?5vbase?5constructor?5iterat@ 0042bfcc     libvcruntime:undname.obj
 0002:00003ff0       ??_C@_0BL@NILFHHPC@?$GAvirtual?5displacement?5map?8?$AA@ 0042bff0     libvcruntime:undname.obj
 0002:0000400c       ??_C@_0CB@JONCMFFK@?$GAeh?5vector?5constructor?5iterator?8@ 0042c00c     libvcruntime:undname.obj
 0002:00004030       ??_C@_0CA@GCEOPDGL@?$GAeh?5vector?5destructor?5iterator?8?$AA@ 0042c030     libvcruntime:undname.obj
 0002:00004050       ??_C@_0CH@OOJPLCPH@?$GAeh?5vector?5vbase?5constructor?5ite@ 0042c050     libvcruntime:undname.obj
 0002:00004078       ??_C@_0BL@LLKPOHJI@?$GAcopy?5constructor?5closure?8?$AA@ 0042c078     libvcruntime:undname.obj
 0002:00004094       ??_C@_0BA@KBCDOMBN@?$GAudt?5returning?8?$AA@ 0042c094     libvcruntime:undname.obj
 0002:000040a4       ??_C@_03KLGMFNMG@?$GAEH?$AA@ 0042c0a4     libvcruntime:undname.obj
 0002:000040a8       ??_C@_05KHLCHHI@?$GARTTI?$AA@ 0042c0a8     libvcruntime:undname.obj
 0002:000040b0       ??_C@_0BA@KKLDJDLB@?$GAlocal?5vftable?8?$AA@ 0042c0b0     libvcruntime:undname.obj
 0002:000040c0       ??_C@_0CE@IIHCMGGL@?$GAlocal?5vftable?5constructor?5closu@ 0042c0c0     libvcruntime:undname.obj
 0002:000040e4       ??_C@_06FHBGPFGH@?5new?$FL?$FN?$AA@ 0042c0e4     libvcruntime:undname.obj
 0002:000040ec       ??_C@_09LBNFPBCA@?5delete?$FL?$FN?$AA@ 0042c0ec     libvcruntime:undname.obj
 0002:000040f8       ??_C@_0P@HJKNJFNN@?$GAomni?5callsig?8?$AA@ 0042c0f8     libvcruntime:undname.obj
 0002:00004108       ??_C@_0BL@CNOONJFP@?$GAplacement?5delete?5closure?8?$AA@ 0042c108     libvcruntime:undname.obj
 0002:00004124       ??_C@_0BN@CKNJLHMB@?$GAplacement?5delete?$FL?$FN?5closure?8?$AA@ 0042c124     libvcruntime:undname.obj
 0002:00004144       ??_C@_0CG@CFDHKGGD@?$GAmanaged?5vector?5constructor?5iter@ 0042c144     libvcruntime:undname.obj
 0002:0000416c       ??_C@_0CF@IMGKMJNO@?$GAmanaged?5vector?5destructor?5itera@ 0042c16c     libvcruntime:undname.obj
 0002:00004194       ??_C@_0CG@HLDDJMAG@?$GAeh?5vector?5copy?5constructor?5iter@ 0042c194     libvcruntime:undname.obj
 0002:000041bc       ??_C@_0CM@FCBBDIGB@?$GAeh?5vector?5vbase?5copy?5constructo@ 0042c1bc     libvcruntime:undname.obj
 0002:000041e8       ??_C@_0BL@CLIPGLGB@?$GAdynamic?5initializer?5for?5?8?$AA@ 0042c1e8     libvcruntime:undname.obj
 0002:00004204       ??_C@_0CB@PDBIFEP@?$GAdynamic?5atexit?5destructor?5for?5?8@ 0042c204     libvcruntime:undname.obj
 0002:00004228       ??_C@_0CD@CGAJBKEJ@?$GAvector?5copy?5constructor?5iterato@ 0042c228     libvcruntime:undname.obj
 0002:0000424c       ??_C@_0CJ@GJELGAMM@?$GAvector?5vbase?5copy?5constructor?5i@ 0042c24c     libvcruntime:undname.obj
 0002:00004278       ??_C@_0CL@FGIJHLCE@?$GAmanaged?5vector?5copy?5constructor@ 0042c278     libvcruntime:undname.obj
 0002:000042a4       ??_C@_0BM@PMGGMLDN@?$GAlocal?5static?5thread?5guard?8?$AA@ 0042c2a4     libvcruntime:undname.obj
 0002:000042c0       ??_C@_0N@BDNMDMOL@operator?5?$CC?$CC?5?$AA@ 0042c2c0     libvcruntime:undname.obj
 0002:000042d0       ??_C@_0BC@DAFEJGAK@?5Type?5Descriptor?8?$AA@ 0042c2d0     libvcruntime:undname.obj
 0002:000042e4       ??_C@_0BM@LDKODKLH@?5Base?5Class?5Descriptor?5at?5?$CI?$AA@ 0042c2e4     libvcruntime:undname.obj
 0002:00004300       ??_C@_0BD@LGICGFMM@?5Base?5Class?5Array?8?$AA@ 0042c300     libvcruntime:undname.obj
 0002:00004314       ??_C@_0BN@MECKDCOJ@?5Class?5Hierarchy?5Descriptor?8?$AA@ 0042c314     libvcruntime:undname.obj
 0002:00004334       ??_C@_0BK@CFCOFLF@?5Complete?5Object?5Locator?8?$AA@ 0042c334     libvcruntime:undname.obj
 0002:000044b8       ??_C@_1BI@BGOHAHKC@?$AAm?$AAs?$AAc?$AAo?$AAr?$AAe?$AAe?$AA?4?$AAd?$AAl?$AAl?$AA?$AA@ 0042c4b8     libucrt:exit.obj
 0002:000044d0       ??_C@_0P@MIGLKIOC@CorExitProcess?$AA@ 0042c4d0     libucrt:exit.obj
 0002:000044e0       __real@3ff0000000000000    0042c4e0     libucrt:fabs.obj
 0002:000044e8       __real@8000000000000000    0042c4e8     libucrt:frexp.obj
 0002:000044f0       _standard_lookup_table     0042c4f0     libucrt:output.obj
 0002:00004550       _format_validation_lookup_table 0042c550     libucrt:output.obj
 0002:000045ac       ??_C@_06OJHGLDPL@?$CInull?$CJ?$AA@ 0042c5ac     libucrt:output.obj
 0002:000045b4       ??_C@_1O@CEDCILHN@?$AA?$CI?$AAn?$AAu?$AAl?$AAl?$AA?$CJ?$AA?$AA@ 0042c5b4     libucrt:output.obj
 0002:000045c8       __wctype                   0042c5c8     libucrt:ctype.obj
 0002:000047d0       ___newctype                0042c7d0     libucrt:ctype.obj
 0002:00004ad0       ___newclmap                0042cad0     libucrt:ctype.obj
 0002:00004c50       ___newcumap                0042cc50     libucrt:ctype.obj
 0002:00004dd0       ?large_power_data@?1??multiply_by_power_of_ten@__crt_strtox@@YA_NAAUbig_integer@2@I@Z@4QBIB 0042cdd0     libucrt:strtod.obj
 0002:000056d8       ?large_power_indices@?1??multiply_by_power_of_ten@__crt_strtox@@YA_NAAUbig_integer@2@I@Z@4QBUunpack_index@?1??12@YA_N0I@Z@B 0042d6d8     libucrt:strtod.obj
 0002:00005770       ?small_powers_of_ten@?6??multiply_by_power_of_ten@__crt_strtox@@YA_NAAUbig_integer@2@I@Z@4QBIB 0042d770     libucrt:strtod.obj
 0002:000057a4       __half                     0042d7a4     libucrt:pow.obj
 0002:000057b0       ___acrt_exception_action_table 0042d7b0     libucrt:exception_filter.obj
 0002:00005840       ___acrt_signal_action_table_count 0042d840     libucrt:exception_filter.obj
 0002:00005844       ___acrt_signal_action_first_fpe_index 0042d844     libucrt:exception_filter.obj
 0002:00005848       ___acrt_signal_action_fpe_count 0042d848     libucrt:exception_filter.obj
 0002:000058c8       ___lc_category             0042d8c8     libucrt:wsetlocale.obj
 0002:00005910       ??_C@_1O@GIFLHMA@?$AAL?$AAC?$AA_?$AAA?$AAL?$AAL?$AA?$AA@ 0042d910     libucrt:wsetlocale.obj
 0002:00005920       ??_C@_1BG@PPOMIBNJ@?$AAL?$AAC?$AA_?$AAC?$AAO?$AAL?$AAL?$AAA?$AAT?$AAE?$AA?$AA@ 0042d920     libucrt:wsetlocale.obj
 0002:00005938       ??_C@_1BC@FFJGAPJM@?$AAL?$AAC?$AA_?$AAC?$AAT?$AAY?$AAP?$AAE?$AA?$AA@ 0042d938     libucrt:wsetlocale.obj
 0002:0000594c       ??_C@_1BI@PCKFNJFB@?$AAL?$AAC?$AA_?$AAM?$AAO?$AAN?$AAE?$AAT?$AAA?$AAR?$AAY?$AA?$AA@ 0042d94c     libucrt:wsetlocale.obj
 0002:00005964       ??_C@_1BG@ENIEDKID@?$AAL?$AAC?$AA_?$AAN?$AAU?$AAM?$AAE?$AAR?$AAI?$AAC?$AA?$AA@ 0042d964     libucrt:wsetlocale.obj
 0002:0000597c       ??_C@_1BA@HAAOMIIG@?$AAL?$AAC?$AA_?$AAT?$AAI?$AAM?$AAE?$AA?$AA@ 0042d97c     libucrt:wsetlocale.obj
 0002:00005a10       ??_C@_15NBPDDFIP@?$AA?$DN?$AA?$DL?$AA?$AA@ 0042da10     libucrt:wsetlocale.obj
 0002:00005a18       ??_C@_13PJJBFPED@?$AA?$DL?$AA?$AA@ 0042da18     libucrt:wsetlocale.obj
 0002:00005a1c       ??_C@_13NMPKAAJP@?$AA?$DN?$AA?$AA@ 0042da1c     libucrt:wsetlocale.obj
 0002:00005a20       ??_C@_13FHBKNHDA@?$AAC?$AA?$AA@ 0042da20     libucrt:wsetlocale.obj
 0002:00005a24       ??_C@_17MBJJLFDM@?$AA_?$AA?4?$AA?0?$AA?$AA@ 0042da24     libucrt:wsetlocale.obj
 0002:00005a2c       ??_C@_13ENNFDPBH@?$AA_?$AA?$AA@ 0042da2c     libucrt:wsetlocale.obj
 0002:00005a30       ??_C@_13JOFGPIOO@?$AA?4?$AA?$AA@ 0042da30     libucrt:wsetlocale.obj
 0002:00005a88       ??_C@_1EG@CNNIPFIM@?$AAa?$AAp?$AAi?$AA?9?$AAm?$AAs?$AA?9?$AAw?$AAi?$AAn?$AA?9?$AAa?$AAp?$AAp?$AAm?$AAo?$AAd?$AAe?$AAl?$AA?9?$AAr?$AAu?$AAn?$AAt?$AAi?$AAm?$AAe?$AA?9?$AAl?$AA1?$AA?9?$AA1@ 0042da88     libucrt:winapi_thunks.obj
 0002:00005ad0       ??_C@_1EA@JGEFHKEI@?$AAa?$AAp?$AAi?$AA?9?$AAm?$AAs?$AA?9?$AAw?$AAi?$AAn?$AA?9?$AAc?$AAo?$AAr?$AAe?$AA?9?$AAd?$AAa?$AAt?$AAe?$AAt?$AAi?$AAm?$AAe?$AA?9?$AAl?$AA1?$AA?9?$AA1?$AA?9?$AA1?$AA?$AA@ 0042dad0     libucrt:winapi_thunks.obj
 0002:00005b10       ??_C@_1DI@GCIAAENM@?$AAa?$AAp?$AAi?$AA?9?$AAm?$AAs?$AA?9?$AAw?$AAi?$AAn?$AA?9?$AAc?$AAo?$AAr?$AAe?$AA?9?$AAf?$AAi?$AAl?$AAe?$AA?9?$AAl?$AA2?$AA?9?$AA1?$AA?9?$AA1?$AA?$AA@ 0042db10     libucrt:winapi_thunks.obj
 0002:00005b48       ??_C@_1EI@MPIAOHOC@?$AAa?$AAp?$AAi?$AA?9?$AAm?$AAs?$AA?9?$AAw?$AAi?$AAn?$AA?9?$AAc?$AAo?$AAr?$AAe?$AA?9?$AAl?$AAo?$AAc?$AAa?$AAl?$AAi?$AAz?$AAa?$AAt?$AAi?$AAo?$AAn?$AA?9?$AAl?$AA1?$AA?9@ 0042db48     libucrt:winapi_thunks.obj
 0002:00005b90       ??_C@_1FK@FPHCKFIE@?$AAa?$AAp?$AAi?$AA?9?$AAm?$AAs?$AA?9?$AAw?$AAi?$AAn?$AA?9?$AAc?$AAo?$AAr?$AAe?$AA?9?$AAl?$AAo?$AAc?$AAa?$AAl?$AAi?$AAz?$AAa?$AAt?$AAi?$AAo?$AAn?$AA?9?$AAo?$AAb?$AAs@ 0042db90     libucrt:winapi_thunks.obj
 0002:00005bf0       ??_C@_1EM@DILCGIIO@?$AAa?$AAp?$AAi?$AA?9?$AAm?$AAs?$AA?9?$AAw?$AAi?$AAn?$AA?9?$AAc?$AAo?$AAr?$AAe?$AA?9?$AAp?$AAr?$AAo?$AAc?$AAe?$AAs?$AAs?$AAt?$AAh?$AAr?$AAe?$AAa?$AAd?$AAs?$AA?9?$AAl@ 0042dbf0     libucrt:winapi_thunks.obj
 0002:00005c3c       ??_C@_1DM@LNCGDDPN@?$AAa?$AAp?$AAi?$AA?9?$AAm?$AAs?$AA?9?$AAw?$AAi?$AAn?$AA?9?$AAc?$AAo?$AAr?$AAe?$AA?9?$AAs?$AAt?$AAr?$AAi?$AAn?$AAg?$AA?9?$AAl?$AA1?$AA?9?$AA1?$AA?9?$AA0?$AA?$AA@ 0042dc3c     libucrt:winapi_thunks.obj
 0002:00005c78       ??_C@_1DO@FPAPJEMD@?$AAa?$AAp?$AAi?$AA?9?$AAm?$AAs?$AA?9?$AAw?$AAi?$AAn?$AA?9?$AAc?$AAo?$AAr?$AAe?$AA?9?$AAs?$AAy?$AAs?$AAi?$AAn?$AAf?$AAo?$AA?9?$AAl?$AA1?$AA?9?$AA2?$AA?9?$AA1?$AA?$AA@ 0042dc78     libucrt:winapi_thunks.obj
 0002:00005cb8       ??_C@_1DK@NDHNAHIO@?$AAa?$AAp?$AAi?$AA?9?$AAm?$AAs?$AA?9?$AAw?$AAi?$AAn?$AA?9?$AAc?$AAo?$AAr?$AAe?$AA?9?$AAw?$AAi?$AAn?$AAr?$AAt?$AA?9?$AAl?$AA1?$AA?9?$AA1?$AA?9?$AA0?$AA?$AA@ 0042dcb8     libucrt:winapi_thunks.obj
 0002:00005cf4       ??_C@_1DM@KGHDGBCM@?$AAa?$AAp?$AAi?$AA?9?$AAm?$AAs?$AA?9?$AAw?$AAi?$AAn?$AA?9?$AAc?$AAo?$AAr?$AAe?$AA?9?$AAx?$AAs?$AAt?$AAa?$AAt?$AAe?$AA?9?$AAl?$AA2?$AA?9?$AA1?$AA?9?$AA0?$AA?$AA@ 0042dcf4     libucrt:winapi_thunks.obj
 0002:00005d30       ??_C@_1EO@IJIOEFOH@?$AAa?$AAp?$AAi?$AA?9?$AAm?$AAs?$AA?9?$AAw?$AAi?$AAn?$AA?9?$AAr?$AAt?$AAc?$AAo?$AAr?$AAe?$AA?9?$AAn?$AAt?$AAu?$AAs?$AAe?$AAr?$AA?9?$AAw?$AAi?$AAn?$AAd?$AAo?$AAw?$AA?9@ 0042dd30     libucrt:winapi_thunks.obj
 0002:00005d80       ??_C@_1FG@HHGEKANL@?$AAa?$AAp?$AAi?$AA?9?$AAm?$AAs?$AA?9?$AAw?$AAi?$AAn?$AA?9?$AAs?$AAe?$AAc?$AAu?$AAr?$AAi?$AAt?$AAy?$AA?9?$AAs?$AAy?$AAs?$AAt?$AAe?$AAm?$AAf?$AAu?$AAn?$AAc?$AAt?$AAi@ 0042dd80     libucrt:winapi_thunks.obj
 0002:00005dd8       ??_C@_1FG@NCKKOLKO@?$AAe?$AAx?$AAt?$AA?9?$AAm?$AAs?$AA?9?$AAw?$AAi?$AAn?$AA?9?$AAk?$AAe?$AAr?$AAn?$AAe?$AAl?$AA3?$AA2?$AA?9?$AAp?$AAa?$AAc?$AAk?$AAa?$AAg?$AAe?$AA?9?$AAc?$AAu?$AAr?$AAr@ 0042ddd8     libucrt:winapi_thunks.obj
 0002:00005e30       ??_C@_1EG@DBIOJECG@?$AAe?$AAx?$AAt?$AA?9?$AAm?$AAs?$AA?9?$AAw?$AAi?$AAn?$AA?9?$AAn?$AAt?$AAu?$AAs?$AAe?$AAr?$AA?9?$AAd?$AAi?$AAa?$AAl?$AAo?$AAg?$AAb?$AAo?$AAx?$AA?9?$AAl?$AA1?$AA?9?$AA1@ 0042de30     libucrt:winapi_thunks.obj
 0002:00005e78       ??_C@_1EO@FIHMJCLF@?$AAe?$AAx?$AAt?$AA?9?$AAm?$AAs?$AA?9?$AAw?$AAi?$AAn?$AA?9?$AAn?$AAt?$AAu?$AAs?$AAe?$AAr?$AA?9?$AAw?$AAi?$AAn?$AAd?$AAo?$AAw?$AAs?$AAt?$AAa?$AAt?$AAi?$AAo?$AAn?$AA?9@ 0042de78     libucrt:winapi_thunks.obj
 0002:00005ec8       ??_C@_1O@BCCLBEOE@?$AAu?$AAs?$AAe?$AAr?$AA3?$AA2?$AA?$AA@ 0042dec8     libucrt:winapi_thunks.obj
 0002:00005edc       ??_C@_0BA@FHFNEAED@AreFileApisANSI?$AA@ 0042dedc     libucrt:winapi_thunks.obj
 0002:00005efc       ??_C@_0BE@LJANKFHF@EnumSystemLocalesEx?$AA@ 0042defc     libucrt:winapi_thunks.obj
 0002:00005f48       ??_C@_0BJ@PBCCBIPI@GetUserDefaultLocaleName?$AA@ 0042df48     libucrt:winapi_thunks.obj
 0002:00005f74       ??_C@_0BC@CELBKLLA@IsValidLocaleName?$AA@ 0042df74     libucrt:winapi_thunks.obj
 0002:00005f98       ??_C@_0BB@CDHDDLLP@LCIDToLocaleName?$AA@ 0042df98     libucrt:winapi_thunks.obj
 0002:00005fb4       ??_C@_0BB@HBDEELFH@LocaleNameToLCID?$AA@ 0042dfb4     libucrt:winapi_thunks.obj
 0002:00005fc8       ??_C@_03KOEHGMDN@Sun?$AA@  0042dfc8     libucrt:nlsdata.obj
 0002:00005fcc       ??_C@_03PDAGKDH@Mon?$AA@   0042dfcc     libucrt:nlsdata.obj
 0002:00005fd0       ??_C@_03NAGEINEP@Tue?$AA@  0042dfd0     libucrt:nlsdata.obj
 0002:00005fd4       ??_C@_03MHOMLAJA@Wed?$AA@  0042dfd4     libucrt:nlsdata.obj
 0002:00005fd8       ??_C@_03IOFIKPDN@Thu?$AA@  0042dfd8     libucrt:nlsdata.obj
 0002:00005fdc       ??_C@_03IDIOELNC@Fri?$AA@  0042dfdc     libucrt:nlsdata.obj
 0002:00005fe0       ??_C@_03FEFJNEK@Sat?$AA@   0042dfe0     libucrt:nlsdata.obj
 0002:00005fe4       ??_C@_06OOPIFAJ@Sunday?$AA@ 0042dfe4     libucrt:nlsdata.obj
 0002:00005fec       ??_C@_06JLEDEDGH@Monday?$AA@ 0042dfec     libucrt:nlsdata.obj
 0002:00005ff4       ??_C@_07BAAGCFCM@Tuesday?$AA@ 0042dff4     libucrt:nlsdata.obj
 0002:00005ffc       ??_C@_09DLIGFAKA@Wednesday?$AA@ 0042dffc     libucrt:nlsdata.obj
 0002:00006008       ??_C@_08HACCIKIA@Thursday?$AA@ 0042e008     libucrt:nlsdata.obj
 0002:00006014       ??_C@_06JECMNKMI@Friday?$AA@ 0042e014     libucrt:nlsdata.obj
 0002:0000601c       ??_C@_08INBOOONO@Saturday?$AA@ 0042e01c     libucrt:nlsdata.obj
 0002:00006028       ??_C@_03JIHJHPIE@Jan?$AA@  0042e028     libucrt:nlsdata.obj
 0002:0000602c       ??_C@_03HJBDCHOM@Feb?$AA@  0042e02c     libucrt:nlsdata.obj
 0002:00006030       ??_C@_03ODNJBKGA@Mar?$AA@  0042e030     libucrt:nlsdata.obj
 0002:00006034       ??_C@_03LEOLGMJP@Apr?$AA@  0042e034     libucrt:nlsdata.obj
 0002:00006038       ??_C@_03CNMDKL@May?$AA@    0042e038     libucrt:nlsdata.obj
 0002:0000603c       ??_C@_03IDFGHECI@Jun?$AA@  0042e03c     libucrt:nlsdata.obj
 0002:00006040       ??_C@_03LBGABGKK@Jul?$AA@  0042e040     libucrt:nlsdata.obj
 0002:00006044       ??_C@_03IFJFEIGA@Aug?$AA@  0042e044     libucrt:nlsdata.obj
 0002:00006048       ??_C@_03GGCAPAJC@Sep?$AA@  0042e048     libucrt:nlsdata.obj
 0002:0000604c       ??_C@_03BMAOKBAD@Oct?$AA@  0042e04c     libucrt:nlsdata.obj
 0002:00006050       ??_C@_03JPJOFNIA@Nov?$AA@  0042e050     libucrt:nlsdata.obj
 0002:00006054       ??_C@_03MKABNOCG@Dec?$AA@  0042e054     libucrt:nlsdata.obj
 0002:00006058       ??_C@_07CGJPFGJA@January?$AA@ 0042e058     libucrt:nlsdata.obj
 0002:00006060       ??_C@_08GNJGEPFN@February?$AA@ 0042e060     libucrt:nlsdata.obj
 0002:0000606c       ??_C@_05HPCKOFNC@March?$AA@ 0042e06c     libucrt:nlsdata.obj
 0002:00006074       ??_C@_05DMJDNLEJ@April?$AA@ 0042e074     libucrt:nlsdata.obj
 0002:0000607c       ??_C@_04CNLMGBGM@June?$AA@ 0042e07c     libucrt:nlsdata.obj
 0002:00006084       ??_C@_04MIEPOIFP@July?$AA@ 0042e084     libucrt:nlsdata.obj
 0002:0000608c       ??_C@_06LBBHFDDG@August?$AA@ 0042e08c     libucrt:nlsdata.obj
 0002:00006094       ??_C@_09BHHEALKD@September?$AA@ 0042e094     libucrt:nlsdata.obj
 0002:000060a0       ??_C@_07JJNFCEND@October?$AA@ 0042e0a0     libucrt:nlsdata.obj
 0002:000060a8       ??_C@_08HCHEGEOA@November?$AA@ 0042e0a8     libucrt:nlsdata.obj
 0002:000060b4       ??_C@_08EDHMEBNP@December?$AA@ 0042e0b4     libucrt:nlsdata.obj
 0002:000060c0       ??_C@_02DEDBPAFC@AM?$AA@   0042e0c0     libucrt:nlsdata.obj
 0002:000060c4       ??_C@_02CJNFDJBF@PM?$AA@   0042e0c4     libucrt:nlsdata.obj
 0002:000060c8       ??_C@_08BPBNCDIB@MM?1dd?1yy?$AA@ 0042e0c8     libucrt:nlsdata.obj
 0002:000060d4       ??_C@_0BE@CKGJFCPC@dddd?0?5MMMM?5dd?0?5yyyy?$AA@ 0042e0d4     libucrt:nlsdata.obj
 0002:000060e8       ??_C@_08JCCMCCIL@HH?3mm?3ss?$AA@ 0042e0e8     libucrt:nlsdata.obj
 0002:000060f4       ??_C@_17MBGCMIPB@?$AAS?$AAu?$AAn?$AA?$AA@ 0042e0f4     libucrt:nlsdata.obj
 0002:000060fc       ??_C@_17KBOMKBF@?$AAM?$AAo?$AAn?$AA?$AA@ 0042e0fc     libucrt:nlsdata.obj
 0002:00006104       ??_C@_17BMKGEGOJ@?$AAT?$AAu?$AAe?$AA?$AA@ 0042e104     libucrt:nlsdata.obj
 0002:0000610c       ??_C@_17CJEDCEPE@?$AAW?$AAe?$AAd?$AA?$AA@ 0042e10c     libucrt:nlsdata.obj
 0002:00006114       ??_C@_17PDPHAADD@?$AAT?$AAh?$AAu?$AA?$AA@ 0042e114     libucrt:nlsdata.obj
 0002:0000611c       ??_C@_17HFOLPPLP@?$AAF?$AAr?$AAi?$AA?$AA@ 0042e11c     libucrt:nlsdata.obj
 0002:00006124       ??_C@_17GGIBDPIH@?$AAS?$AAa?$AAt?$AA?$AA@ 0042e124     libucrt:nlsdata.obj
 0002:0000612c       ??_C@_1O@IHNHDHPB@?$AAS?$AAu?$AAn?$AAd?$AAa?$AAy?$AA?$AA@ 0042e12c     libucrt:nlsdata.obj
 0002:0000613c       ??_C@_1O@MMNBFLIA@?$AAM?$AAo?$AAn?$AAd?$AAa?$AAy?$AA?$AA@ 0042e13c     libucrt:nlsdata.obj
 0002:0000614c       ??_C@_1BA@ENFBFFEK@?$AAT?$AAu?$AAe?$AAs?$AAd?$AAa?$AAy?$AA?$AA@ 0042e14c     libucrt:nlsdata.obj
 0002:0000615c       ??_C@_1BE@EBOGMDOH@?$AAW?$AAe?$AAd?$AAn?$AAe?$AAs?$AAd?$AAa?$AAy?$AA?$AA@ 0042e15c     libucrt:nlsdata.obj
 0002:00006170       ??_C@_1BC@HHMNLIHE@?$AAT?$AAh?$AAu?$AAr?$AAs?$AAd?$AAa?$AAy?$AA?$AA@ 0042e170     libucrt:nlsdata.obj
 0002:00006184       ??_C@_1O@PDICJHAG@?$AAF?$AAr?$AAi?$AAd?$AAa?$AAy?$AA?$AA@ 0042e184     libucrt:nlsdata.obj
 0002:00006194       ??_C@_1BC@ENMNNPAJ@?$AAS?$AAa?$AAt?$AAu?$AAr?$AAd?$AAa?$AAy?$AA?$AA@ 0042e194     libucrt:nlsdata.obj
 0002:000061a8       ??_C@_17DKNBKCHM@?$AAJ?$AAa?$AAn?$AA?$AA@ 0042e1a8     libucrt:nlsdata.obj
 0002:000061b0       ??_C@_17LMDJEKJN@?$AAF?$AAe?$AAb?$AA?$AA@ 0042e1b0     libucrt:nlsdata.obj
 0002:000061b8       ??_C@_17CKNLEDEC@?$AAM?$AAa?$AAr?$AA?$AA@ 0042e1b8     libucrt:nlsdata.obj
 0002:000061c0       ??_C@_17LFPOIHDD@?$AAA?$AAp?$AAr?$AA?$AA@ 0042e1c0     libucrt:nlsdata.obj
 0002:000061c8       ??_C@_17PNNKMEED@?$AAM?$AAa?$AAy?$AA?$AA@ 0042e1c8     libucrt:nlsdata.obj
 0002:000061d0       ??_C@_17KCJGOCPB@?$AAJ?$AAu?$AAn?$AA?$AA@ 0042e1d0     libucrt:nlsdata.obj
 0002:000061d8       ??_C@_17IJPCKHK@?$AAJ?$AAu?$AAl?$AA?$AA@ 0042e1d8     libucrt:nlsdata.obj
 0002:000061e0       ??_C@_17ICPELBCN@?$AAA?$AAu?$AAg?$AA?$AA@ 0042e1e0     libucrt:nlsdata.obj
 0002:000061e8       ??_C@_17HCHCOKMG@?$AAS?$AAe?$AAp?$AA?$AA@ 0042e1e8     libucrt:nlsdata.obj
 0002:000061f0       ??_C@_17FNLKOI@?$AAO?$AAc?$AAt?$AA?$AA@ 0042e1f0     libucrt:nlsdata.obj
 0002:000061f8       ??_C@_17BBDMLCIG@?$AAN?$AAo?$AAv?$AA?$AA@ 0042e1f8     libucrt:nlsdata.obj
 0002:00006200       ??_C@_17EGKACKIF@?$AAD?$AAe?$AAc?$AA?$AA@ 0042e200     libucrt:nlsdata.obj
 0002:00006208       ??_C@_1BA@EFMEIEBA@?$AAJ?$AAa?$AAn?$AAu?$AAa?$AAr?$AAy?$AA?$AA@ 0042e208     libucrt:nlsdata.obj
 0002:00006218       ??_C@_1BC@JGDDFFAM@?$AAF?$AAe?$AAb?$AAr?$AAu?$AAa?$AAr?$AAy?$AA?$AA@ 0042e218     libucrt:nlsdata.obj
 0002:0000622c       ??_C@_1M@IKEENEDF@?$AAM?$AAa?$AAr?$AAc?$AAh?$AA?$AA@ 0042e22c     libucrt:nlsdata.obj
 0002:00006238       ??_C@_1M@GJNLMHFD@?$AAA?$AAp?$AAr?$AAi?$AAl?$AA?$AA@ 0042e238     libucrt:nlsdata.obj
 0002:00006244       ??_C@_19EPFLPGAP@?$AAJ?$AAu?$AAn?$AAe?$AA?$AA@ 0042e244     libucrt:nlsdata.obj
 0002:00006250       ??_C@_19BIFMLPCD@?$AAJ?$AAu?$AAl?$AAy?$AA?$AA@ 0042e250     libucrt:nlsdata.obj
 0002:0000625c       ??_C@_1O@PAHLKOAC@?$AAA?$AAu?$AAg?$AAu?$AAs?$AAt?$AA?$AA@ 0042e25c     libucrt:nlsdata.obj
 0002:0000626c       ??_C@_1BE@DKAAMBJL@?$AAS?$AAe?$AAp?$AAt?$AAe?$AAm?$AAb?$AAe?$AAr?$AA?$AA@ 0042e26c     libucrt:nlsdata.obj
 0002:00006280       ??_C@_1BA@EPANDLNG@?$AAO?$AAc?$AAt?$AAo?$AAb?$AAe?$AAr?$AA?$AA@ 0042e280     libucrt:nlsdata.obj
 0002:00006290       ??_C@_1BC@BGLIFPF@?$AAN?$AAo?$AAv?$AAe?$AAm?$AAb?$AAe?$AAr?$AA?$AA@ 0042e290     libucrt:nlsdata.obj
 0002:000062a4       ??_C@_1BC@FEMKIFH@?$AAD?$AAe?$AAc?$AAe?$AAm?$AAb?$AAe?$AAr?$AA?$AA@ 0042e2a4     libucrt:nlsdata.obj
 0002:000062b8       ??_C@_15ODEHAHHF@?$AAA?$AAM?$AA?$AA@ 0042e2b8     libucrt:nlsdata.obj
 0002:000062c0       ??_C@_15CLMNNGEL@?$AAP?$AAM?$AA?$AA@ 0042e2c0     libucrt:nlsdata.obj
 0002:000062c8       ??_C@_1BC@IEBCMHCM@?$AAM?$AAM?$AA?1?$AAd?$AAd?$AA?1?$AAy?$AAy?$AA?$AA@ 0042e2c8     libucrt:nlsdata.obj
 0002:000062dc       ??_C@_1CI@KNAKOEBC@?$AAd?$AAd?$AAd?$AAd?$AA?0?$AA?5?$AAM?$AAM?$AAM?$AAM?$AA?5?$AAd?$AAd?$AA?0?$AA?5?$AAy?$AAy?$AAy?$AAy?$AA?$AA@ 0042e2dc     libucrt:nlsdata.obj
 0002:00006304       ??_C@_1BC@GDGBMEMK@?$AAH?$AAH?$AA?3?$AAm?$AAm?$AA?3?$AAs?$AAs?$AA?$AA@ 0042e304     libucrt:nlsdata.obj
 0002:00006318       ___lc_time_c               0042e318     libucrt:nlsdata.obj
 0002:0000647c       ??_C@_04FJHINJAO@tanh?$AA@ 0042e47c     libucrt:fpexcept.obj
 0002:00006484       ??_C@_04FIHNOPOL@asin?$AA@ 0042e484     libucrt:fpexcept.obj
 0002:0000648c       ??_C@_04PDIFKINK@acos?$AA@ 0042e48c     libucrt:fpexcept.obj
 0002:00006494       ??_C@_04MLLJIGOK@atan?$AA@ 0042e494     libucrt:fpexcept.obj
 0002:0000649c       ??_C@_05KNGEOGJB@atan2?$AA@ 0042e49c     libucrt:fpexcept.obj
 0002:000064a4       ??_C@_04EIAKFFMI@sqrt?$AA@ 0042e4a4     libucrt:fpexcept.obj
 0002:000064ac       ??_C@_03BLEJJJBH@sin?$AA@  0042e4ac     libucrt:fpexcept.obj
 0002:000064b0       ??_C@_03LALBNOCG@cos?$AA@  0042e4b0     libucrt:fpexcept.obj
 0002:000064b4       ??_C@_03IIINPABG@tan?$AA@  0042e4b4     libucrt:fpexcept.obj
 0002:000064b8       ??_C@_04GFPJNGEK@ceil?$AA@ 0042e4b8     libucrt:fpexcept.obj
 0002:000064c0       ??_C@_05PBJFFIGL@floor?$AA@ 0042e4c0     libucrt:fpexcept.obj
 0002:000064c8       ??_C@_04ODHECPBC@fabs?$AA@ 0042e4c8     libucrt:fpexcept.obj
 0002:000064d0       ??_C@_04EHEDPDJG@modf?$AA@ 0042e4d0     libucrt:fpexcept.obj
 0002:000064d8       ??_C@_05CEJMAHNP@ldexp?$AA@ 0042e4d8     libucrt:fpexcept.obj
 0002:000064e0       ??_C@_05KBKMEMPO@_cabs?$AA@ 0042e4e0     libucrt:fpexcept.obj
 0002:000064e8       ??_C@_06MEIMCGCF@_hypot?$AA@ 0042e4e8     libucrt:fpexcept.obj
 0002:000064f0       ??_C@_04KEPJIHGP@fmod?$AA@ 0042e4f0     libucrt:fpexcept.obj
 0002:000064f8       ??_C@_05GKKHEGJL@frexp?$AA@ 0042e4f8     libucrt:fpexcept.obj
 0002:00006500       ??_C@_03MJLDFKDL@_y0?$AA@  0042e500     libucrt:fpexcept.obj
 0002:00006504       ??_C@_03NAKIGLHK@_y1?$AA@  0042e504     libucrt:fpexcept.obj
 0002:00006508       ??_C@_03ONILCKOB@_yn?$AA@  0042e508     libucrt:fpexcept.obj
 0002:0000650c       ??_C@_05JGDBENOH@_logb?$AA@ 0042e50c     libucrt:fpexcept.obj
 0002:00006514       ??_C@_0L@KDOEJCKC@_nextafter?$AA@ 0042e514     libucrt:fpexcept.obj
 0002:00006608       ??_C@_03KHJOGHMM@exp?$AA@  0042e608     libucrt:fpexcept.obj
 0002:0000660c       ??_C@_03JGHBODFD@pow?$AA@  0042e60c     libucrt:fpexcept.obj
 0002:00006610       ??_C@_03MGHMBJCF@log?$AA@  0042e610     libucrt:fpexcept.obj
 0002:00006614       ??_C@_05HGHHAHAP@log10?$AA@ 0042e614     libucrt:fpexcept.obj
 0002:0000661c       ??_C@_04COOMCNPB@sinh?$AA@ 0042e61c     libucrt:fpexcept.obj
 0002:00006624       ??_C@_04HPJJNFIM@cosh?$AA@ 0042e624     libucrt:fpexcept.obj
 0002:00006630       __d_inf                    0042e630     libucrt:util.obj
 0002:00006638       __d_max                    0042e638     libucrt:util.obj
 0002:00006640       __d_mzero                  0042e640     libucrt:util.obj
 0002:00006660       ?ccs@?BL@???$__acrt_stdio_parse_mode@D@@YA?AU__acrt_stdio_stream_mode@@QBD@Z@4QBDB 0042e660     libucrt:openfile.obj
 0002:00006664       ?utf8_encoding@?BL@???$__acrt_stdio_parse_mode@D@@YA?AU__acrt_stdio_stream_mode@@QBD@Z@4QBDB 0042e664     libucrt:openfile.obj
 0002:0000666c       ?utf16_encoding@?BL@???$__acrt_stdio_parse_mode@D@@YA?AU__acrt_stdio_stream_mode@@QBD@Z@4QBDB 0042e66c     libucrt:openfile.obj
 0002:00006674       ?unicode_encoding@?BL@???$__acrt_stdio_parse_mode@D@@YA?AU__acrt_stdio_stream_mode@@QBD@Z@4QBDB 0042e674     libucrt:openfile.obj
 0002:0000667c       ??_C@_03OEIAHPBN@INF?$AA@  0042e67c     libucrt:cvt.obj
 0002:00006680       ??_C@_03OJHLLCGB@inf?$AA@  0042e680     libucrt:cvt.obj
 0002:00006684       ??_C@_03LKNCIKJB@NAN?$AA@  0042e684     libucrt:cvt.obj
 0002:00006688       ??_C@_03LHCJEHON@nan?$AA@  0042e688     libucrt:cvt.obj
 0002:0000668c       ??_C@_09OFJJIMPC@NAN?$CISNAN?$CJ?$AA@ 0042e68c     libucrt:cvt.obj
 0002:00006698       ??_C@_09IPFBKMDL@nan?$CIsnan?$CJ?$AA@ 0042e698     libucrt:cvt.obj
 0002:000066a4       ??_C@_08IKHNHAJ@NAN?$CIIND?$CJ?$AA@ 0042e6a4     libucrt:cvt.obj
 0002:000066b0       ??_C@_08OFCDMILK@nan?$CIind?$CJ?$AA@ 0042e6b0     libucrt:cvt.obj
 0002:000066bc       ??_C@_05KLBDPFGC@e?$CL000?$AA@ 0042e6bc     libucrt:cvt.obj
 0002:00006790       __infinity                 0042e790     libucrt:87tran.obj
 0002:0000679a       __minfinity                0042e79a     libucrt:87tran.obj
 0002:000067a4       __logemax                  0042e7a4     libucrt:87tran.obj
 0002:000067ca       __OP_EXPjmptab             0042e7ca     libucrt:87tran.obj
 0002:000067f0       __indefinite               0042e7f0     libucrt:87disp.obj
 0002:000067fa       __piby2                    0042e7fa     libucrt:87disp.obj
 0002:00006804       __piby4                    0042e804     libucrt:87disp.obj
 0002:00006838       __DEFAULT_CW_in_mem        0042e838     libucrt:common.obj
 0002:0000683a       __pi_by_2_to_61            0042e83a     libucrt:common.obj
 0002:00006878       __real@3fe0000000000000    0042e878     libucrt:powhlp.obj
 0002:00006890       ??_C@_1BC@LLOKLNP@?$AAa?$AAm?$AAe?$AAr?$AAi?$AAc?$AAa?$AAn?$AA?$AA@ 0042e890     libucrt:get_qualified_locale.obj
 0002:000068a4       ??_C@_1CC@HEIGCDGG@?$AAa?$AAm?$AAe?$AAr?$AAi?$AAc?$AAa?$AAn?$AA?5?$AAe?$AAn?$AAg?$AAl?$AAi?$AAs?$AAh?$AA?$AA@ 0042e8a4     libucrt:get_qualified_locale.obj
 0002:000068c8       ??_C@_1CC@IHCNOMIN@?$AAa?$AAm?$AAe?$AAr?$AAi?$AAc?$AAa?$AAn?$AA?9?$AAe?$AAn?$AAg?$AAl?$AAi?$AAs?$AAh?$AA?$AA@ 0042e8c8     libucrt:get_qualified_locale.obj
 0002:000068ec       ??_C@_1BG@GKAGPCGG@?$AAa?$AAu?$AAs?$AAt?$AAr?$AAa?$AAl?$AAi?$AAa?$AAn?$AA?$AA@ 0042e8ec     libucrt:get_qualified_locale.obj
 0002:00006904       ??_C@_1BA@GMENCENF@?$AAb?$AAe?$AAl?$AAg?$AAi?$AAa?$AAn?$AA?$AA@ 0042e904     libucrt:get_qualified_locale.obj
 0002:00006914       ??_C@_1BC@PJMIIAAN@?$AAc?$AAa?$AAn?$AAa?$AAd?$AAi?$AAa?$AAn?$AA?$AA@ 0042e914     libucrt:get_qualified_locale.obj
 0002:00006928       ??_C@_17NOIMNFBF@?$AAc?$AAh?$AAh?$AA?$AA@ 0042e928     libucrt:get_qualified_locale.obj
 0002:00006930       ??_C@_17GGDALCHA@?$AAc?$AAh?$AAi?$AA?$AA@ 0042e930     libucrt:get_qualified_locale.obj
 0002:00006938       ??_C@_1BA@NPNJKIBL@?$AAc?$AAh?$AAi?$AAn?$AAe?$AAs?$AAe?$AA?$AA@ 0042e938     libucrt:get_qualified_locale.obj
 0002:00006948       ??_C@_1CC@DINBAMMJ@?$AAc?$AAh?$AAi?$AAn?$AAe?$AAs?$AAe?$AA?9?$AAh?$AAo?$AAn?$AAg?$AAk?$AAo?$AAn?$AAg?$AA?$AA@ 0042e948     libucrt:get_qualified_locale.obj
 0002:0000696c       ??_C@_1CG@IOBJPACO@?$AAc?$AAh?$AAi?$AAn?$AAe?$AAs?$AAe?$AA?9?$AAs?$AAi?$AAm?$AAp?$AAl?$AAi?$AAf?$AAi?$AAe?$AAd?$AA?$AA@ 0042e96c     libucrt:get_qualified_locale.obj
 0002:00006994       ??_C@_1CE@GAJNDCKG@?$AAc?$AAh?$AAi?$AAn?$AAe?$AAs?$AAe?$AA?9?$AAs?$AAi?$AAn?$AAg?$AAa?$AAp?$AAo?$AAr?$AAe?$AA?$AA@ 0042e994     libucrt:get_qualified_locale.obj
 0002:000069b8       ??_C@_1CI@PAJPIOOD@?$AAc?$AAh?$AAi?$AAn?$AAe?$AAs?$AAe?$AA?9?$AAt?$AAr?$AAa?$AAd?$AAi?$AAt?$AAi?$AAo?$AAn?$AAa?$AAl?$AA?$AA@ 0042e9b8     libucrt:get_qualified_locale.obj
 0002:000069e0       ??_C@_1BM@NILJBMMD@?$AAd?$AAu?$AAt?$AAc?$AAh?$AA?9?$AAb?$AAe?$AAl?$AAg?$AAi?$AAa?$AAn?$AA?$AA@ 0042e9e0     libucrt:get_qualified_locale.obj
 0002:000069fc       ??_C@_1CC@OOJPJNEJ@?$AAe?$AAn?$AAg?$AAl?$AAi?$AAs?$AAh?$AA?9?$AAa?$AAm?$AAe?$AAr?$AAi?$AAc?$AAa?$AAn?$AA?$AA@ 0042e9fc     libucrt:get_qualified_locale.obj
 0002:00006a20       ??_C@_1BI@IOLFEEM@?$AAe?$AAn?$AAg?$AAl?$AAi?$AAs?$AAh?$AA?9?$AAa?$AAu?$AAs?$AA?$AA@ 0042ea20     libucrt:get_qualified_locale.obj
 0002:00006a38       ??_C@_1BO@HFFNLENJ@?$AAe?$AAn?$AAg?$AAl?$AAi?$AAs?$AAh?$AA?9?$AAb?$AAe?$AAl?$AAi?$AAz?$AAe?$AA?$AA@ 0042ea38     libucrt:get_qualified_locale.obj
 0002:00006a58       ??_C@_1BI@HAPKJMPO@?$AAe?$AAn?$AAg?$AAl?$AAi?$AAs?$AAh?$AA?9?$AAc?$AAa?$AAn?$AA?$AA@ 0042ea58     libucrt:get_qualified_locale.obj
 0002:00006a70       ??_C@_1CE@HLNDMIOJ@?$AAe?$AAn?$AAg?$AAl?$AAi?$AAs?$AAh?$AA?9?$AAc?$AAa?$AAr?$AAi?$AAb?$AAb?$AAe?$AAa?$AAn?$AA?$AA@ 0042ea70     libucrt:get_qualified_locale.obj
 0002:00006a94       ??_C@_1BI@LDHJHHAC@?$AAe?$AAn?$AAg?$AAl?$AAi?$AAs?$AAh?$AA?9?$AAi?$AAr?$AAe?$AA?$AA@ 0042ea94     libucrt:get_qualified_locale.obj
 0002:00006aac       ??_C@_1CA@NJMMCFOC@?$AAe?$AAn?$AAg?$AAl?$AAi?$AAs?$AAh?$AA?9?$AAj?$AAa?$AAm?$AAa?$AAi?$AAc?$AAa?$AA?$AA@ 0042eaac     libucrt:get_qualified_locale.obj
 0002:00006acc       ??_C@_1BG@BHJEBBGG@?$AAe?$AAn?$AAg?$AAl?$AAi?$AAs?$AAh?$AA?9?$AAn?$AAz?$AA?$AA@ 0042eacc     libucrt:get_qualified_locale.obj
 0002:00006ae4       ??_C@_1CK@FGOEJJCO@?$AAe?$AAn?$AAg?$AAl?$AAi?$AAs?$AAh?$AA?9?$AAs?$AAo?$AAu?$AAt?$AAh?$AA?5?$AAa?$AAf?$AAr?$AAi?$AAc?$AAa?$AA?$AA@ 0042eae4     libucrt:get_qualified_locale.obj
 0002:00006b10       ??_C@_1DE@PDBJPCJ@?$AAe?$AAn?$AAg?$AAl?$AAi?$AAs?$AAh?$AA?9?$AAt?$AAr?$AAi?$AAn?$AAi?$AAd?$AAa?$AAd?$AA?5?$AAy?$AA?5?$AAt?$AAo?$AAb?$AAa?$AAg?$AAo?$AA?$AA@ 0042eb10     libucrt:get_qualified_locale.obj
 0002:00006b44       ??_C@_1BG@JGCANDME@?$AAe?$AAn?$AAg?$AAl?$AAi?$AAs?$AAh?$AA?9?$AAu?$AAk?$AA?$AA@ 0042eb44     libucrt:get_qualified_locale.obj
 0002:00006b5c       ??_C@_1BG@DINKMLE@?$AAe?$AAn?$AAg?$AAl?$AAi?$AAs?$AAh?$AA?9?$AAu?$AAs?$AA?$AA@ 0042eb5c     libucrt:get_qualified_locale.obj
 0002:00006b74       ??_C@_1BI@NMFDBHJE@?$AAe?$AAn?$AAg?$AAl?$AAi?$AAs?$AAh?$AA?9?$AAu?$AAs?$AAa?$AA?$AA@ 0042eb74     libucrt:get_qualified_locale.obj
 0002:00006b8c       ??_C@_1BO@OIHKJKII@?$AAf?$AAr?$AAe?$AAn?$AAc?$AAh?$AA?9?$AAb?$AAe?$AAl?$AAg?$AAi?$AAa?$AAn?$AA?$AA@ 0042eb8c     libucrt:get_qualified_locale.obj
 0002:00006bac       ??_C@_1CA@NKAELJKI@?$AAf?$AAr?$AAe?$AAn?$AAc?$AAh?$AA?9?$AAc?$AAa?$AAn?$AAa?$AAd?$AAi?$AAa?$AAn?$AA?$AA@ 0042ebac     libucrt:get_qualified_locale.obj
 0002:00006bcc       ??_C@_1CE@MGKCNLGN@?$AAf?$AAr?$AAe?$AAn?$AAc?$AAh?$AA?9?$AAl?$AAu?$AAx?$AAe?$AAm?$AAb?$AAo?$AAu?$AAr?$AAg?$AA?$AA@ 0042ebcc     libucrt:get_qualified_locale.obj
 0002:00006bf0       ??_C@_1BK@CEGEAILM@?$AAf?$AAr?$AAe?$AAn?$AAc?$AAh?$AA?9?$AAs?$AAw?$AAi?$AAs?$AAs?$AA?$AA@ 0042ebf0     libucrt:get_qualified_locale.obj
 0002:00006c0c       ??_C@_1CA@PAFKEOCC@?$AAg?$AAe?$AAr?$AAm?$AAa?$AAn?$AA?9?$AAa?$AAu?$AAs?$AAt?$AAr?$AAi?$AAa?$AAn?$AA?$AA@ 0042ec0c     libucrt:get_qualified_locale.obj
 0002:00006c2c       ??_C@_1CI@HCFHGOFD@?$AAg?$AAe?$AAr?$AAm?$AAa?$AAn?$AA?9?$AAl?$AAi?$AAc?$AAh?$AAt?$AAe?$AAn?$AAs?$AAt?$AAe?$AAi?$AAn?$AA?$AA@ 0042ec2c     libucrt:get_qualified_locale.obj
 0002:00006c54       ??_C@_1CE@FEDDNPDG@?$AAg?$AAe?$AAr?$AAm?$AAa?$AAn?$AA?9?$AAl?$AAu?$AAx?$AAe?$AAm?$AAb?$AAo?$AAu?$AAr?$AAg?$AA?$AA@ 0042ec54     libucrt:get_qualified_locale.obj
 0002:00006c78       ??_C@_1BK@LIMINNMN@?$AAg?$AAe?$AAr?$AAm?$AAa?$AAn?$AA?9?$AAs?$AAw?$AAi?$AAs?$AAs?$AA?$AA@ 0042ec78     libucrt:get_qualified_locale.obj
 0002:00006c94       ??_C@_1BM@LGMDBEPD@?$AAi?$AAr?$AAi?$AAs?$AAh?$AA?9?$AAe?$AAn?$AAg?$AAl?$AAi?$AAs?$AAh?$AA?$AA@ 0042ec94     libucrt:get_qualified_locale.obj
 0002:00006cb0       ??_C@_1BM@NNCFBAEE@?$AAi?$AAt?$AAa?$AAl?$AAi?$AAa?$AAn?$AA?9?$AAs?$AAw?$AAi?$AAs?$AAs?$AA?$AA@ 0042ecb0     libucrt:get_qualified_locale.obj
 0002:00006ccc       ??_C@_1BE@FEDJNPIB@?$AAn?$AAo?$AAr?$AAw?$AAe?$AAg?$AAi?$AAa?$AAn?$AA?$AA@ 0042eccc     libucrt:get_qualified_locale.obj
 0002:00006ce0       ??_C@_1CC@CILKDEIE@?$AAn?$AAo?$AAr?$AAw?$AAe?$AAg?$AAi?$AAa?$AAn?$AA?9?$AAb?$AAo?$AAk?$AAm?$AAa?$AAl?$AA?$AA@ 0042ece0     libucrt:get_qualified_locale.obj
 0002:00006d04       ??_C@_1CE@DHMMHEPL@?$AAn?$AAo?$AAr?$AAw?$AAe?$AAg?$AAi?$AAa?$AAn?$AA?9?$AAn?$AAy?$AAn?$AAo?$AAr?$AAs?$AAk?$AA?$AA@ 0042ed04     libucrt:get_qualified_locale.obj
 0002:00006d28       ??_C@_1CK@OPNMHECD@?$AAp?$AAo?$AAr?$AAt?$AAu?$AAg?$AAu?$AAe?$AAs?$AAe?$AA?9?$AAb?$AAr?$AAa?$AAz?$AAi?$AAl?$AAi?$AAa?$AAn?$AA?$AA@ 0042ed28     libucrt:get_qualified_locale.obj
 0002:00006d54       ??_C@_1CE@KEEHCDB@?$AAs?$AAp?$AAa?$AAn?$AAi?$AAs?$AAh?$AA?9?$AAa?$AAr?$AAg?$AAe?$AAn?$AAt?$AAi?$AAn?$AAa?$AA?$AA@ 0042ed54     libucrt:get_qualified_locale.obj
 0002:00006d78       ??_C@_1CA@GIAOLHJD@?$AAs?$AAp?$AAa?$AAn?$AAi?$AAs?$AAh?$AA?9?$AAb?$AAo?$AAl?$AAi?$AAv?$AAi?$AAa?$AA?$AA@ 0042ed78     libucrt:get_qualified_locale.obj
 0002:00006d98       ??_C@_1BM@OJNDFNPD@?$AAs?$AAp?$AAa?$AAn?$AAi?$AAs?$AAh?$AA?9?$AAc?$AAh?$AAi?$AAl?$AAe?$AA?$AA@ 0042ed98     libucrt:get_qualified_locale.obj
 0002:00006db4       ??_C@_1CC@OCOLPALL@?$AAs?$AAp?$AAa?$AAn?$AAi?$AAs?$AAh?$AA?9?$AAc?$AAo?$AAl?$AAo?$AAm?$AAb?$AAi?$AAa?$AA?$AA@ 0042edb4     libucrt:get_qualified_locale.obj
 0002:00006dd8       ??_C@_1CG@BPOFMKBB@?$AAs?$AAp?$AAa?$AAn?$AAi?$AAs?$AAh?$AA?9?$AAc?$AAo?$AAs?$AAt?$AAa?$AA?5?$AAr?$AAi?$AAc?$AAa?$AA?$AA@ 0042edd8     libucrt:get_qualified_locale.obj
 0002:00006e00       ??_C@_1DG@IGOBAPBB@?$AAs?$AAp?$AAa?$AAn?$AAi?$AAs?$AAh?$AA?9?$AAd?$AAo?$AAm?$AAi?$AAn?$AAi?$AAc?$AAa?$AAn?$AA?5?$AAr?$AAe?$AAp?$AAu?$AAb?$AAl?$AAi?$AAc?$AA?$AA@ 0042ee00     libucrt:get_qualified_locale.obj
 0002:00006e38       ??_C@_1CA@JHAPGEGI@?$AAs?$AAp?$AAa?$AAn?$AAi?$AAs?$AAh?$AA?9?$AAe?$AAc?$AAu?$AAa?$AAd?$AAo?$AAr?$AA?$AA@ 0042ee38     libucrt:get_qualified_locale.obj
 0002:00006e58       ??_C@_1CI@LAPALJPP@?$AAs?$AAp?$AAa?$AAn?$AAi?$AAs?$AAh?$AA?9?$AAe?$AAl?$AA?5?$AAs?$AAa?$AAl?$AAv?$AAa?$AAd?$AAo?$AAr?$AA?$AA@ 0042ee58     libucrt:get_qualified_locale.obj
 0002:00006e80       ??_C@_1CE@PDGBOFOM@?$AAs?$AAp?$AAa?$AAn?$AAi?$AAs?$AAh?$AA?9?$AAg?$AAu?$AAa?$AAt?$AAe?$AAm?$AAa?$AAl?$AAa?$AA?$AA@ 0042ee80     libucrt:get_qualified_locale.obj
 0002:00006ea4       ??_C@_1CC@NBEBAODI@?$AAs?$AAp?$AAa?$AAn?$AAi?$AAs?$AAh?$AA?9?$AAh?$AAo?$AAn?$AAd?$AAu?$AAr?$AAa?$AAs?$AA?$AA@ 0042eea4     libucrt:get_qualified_locale.obj
 0002:00006ec8       ??_C@_1CA@LLKGHBMF@?$AAs?$AAp?$AAa?$AAn?$AAi?$AAs?$AAh?$AA?9?$AAm?$AAe?$AAx?$AAi?$AAc?$AAa?$AAn?$AA?$AA@ 0042eec8     libucrt:get_qualified_locale.obj
 0002:00006ee8       ??_C@_1BO@LKNDOIGD@?$AAs?$AAp?$AAa?$AAn?$AAi?$AAs?$AAh?$AA?9?$AAm?$AAo?$AAd?$AAe?$AAr?$AAn?$AA?$AA@ 0042eee8     libucrt:get_qualified_locale.obj
 0002:00006f08       ??_C@_1CE@NMDMOEEB@?$AAs?$AAp?$AAa?$AAn?$AAi?$AAs?$AAh?$AA?9?$AAn?$AAi?$AAc?$AAa?$AAr?$AAa?$AAg?$AAu?$AAa?$AA?$AA@ 0042ef08     libucrt:get_qualified_locale.obj
 0002:00006f2c       ??_C@_1BO@LLCBEJGB@?$AAs?$AAp?$AAa?$AAn?$AAi?$AAs?$AAh?$AA?9?$AAp?$AAa?$AAn?$AAa?$AAm?$AAa?$AA?$AA@ 0042ef2c     libucrt:get_qualified_locale.obj
 0002:00006f4c       ??_C@_1CC@FKPGGIHO@?$AAs?$AAp?$AAa?$AAn?$AAi?$AAs?$AAh?$AA?9?$AAp?$AAa?$AAr?$AAa?$AAg?$AAu?$AAa?$AAy?$AA?$AA@ 0042ef4c     libucrt:get_qualified_locale.obj
 0002:00006f70       ??_C@_1BK@CDEIHOOP@?$AAs?$AAp?$AAa?$AAn?$AAi?$AAs?$AAh?$AA?9?$AAp?$AAe?$AAr?$AAu?$AA?$AA@ 0042ef70     libucrt:get_qualified_locale.obj
 0002:00006f8c       ??_C@_1CI@GAHAKKGP@?$AAs?$AAp?$AAa?$AAn?$AAi?$AAs?$AAh?$AA?9?$AAp?$AAu?$AAe?$AAr?$AAt?$AAo?$AA?5?$AAr?$AAi?$AAc?$AAo?$AA?$AA@ 0042ef8c     libucrt:get_qualified_locale.obj
 0002:00006fb4       ??_C@_1CA@NKJBCAGP@?$AAs?$AAp?$AAa?$AAn?$AAi?$AAs?$AAh?$AA?9?$AAu?$AAr?$AAu?$AAg?$AAu?$AAa?$AAy?$AA?$AA@ 0042efb4     libucrt:get_qualified_locale.obj
 0002:00006fd4       ??_C@_1CE@ODILCONM@?$AAs?$AAp?$AAa?$AAn?$AAi?$AAs?$AAh?$AA?9?$AAv?$AAe?$AAn?$AAe?$AAz?$AAu?$AAe?$AAl?$AAa?$AA?$AA@ 0042efd4     libucrt:get_qualified_locale.obj
 0002:00006ff8       ??_C@_1CA@OBNMCGFO@?$AAs?$AAw?$AAe?$AAd?$AAi?$AAs?$AAh?$AA?9?$AAf?$AAi?$AAn?$AAl?$AAa?$AAn?$AAd?$AA?$AA@ 0042eff8     libucrt:get_qualified_locale.obj
 0002:00007018       ??_C@_1M@PIPDDPPI@?$AAs?$AAw?$AAi?$AAs?$AAs?$AA?$AA@ 0042f018     libucrt:get_qualified_locale.obj
 0002:00007024       ??_C@_15GMFIMNFM@?$AAu?$AAs?$AA?$AA@ 0042f024     libucrt:get_qualified_locale.obj
 0002:0000702c       ??_C@_17HAEBFAGL@?$AAu?$AAs?$AAa?$AA?$AA@ 0042f02c     libucrt:get_qualified_locale.obj
 0002:00007034       ??_C@_1BA@DPFJEPHB@?$AAa?$AAm?$AAe?$AAr?$AAi?$AAc?$AAa?$AA?$AA@ 0042f034     libucrt:get_qualified_locale.obj
 0002:00007044       ??_C@_1BA@ELOGGFK@?$AAb?$AAr?$AAi?$AAt?$AAa?$AAi?$AAn?$AA?$AA@ 0042f044     libucrt:get_qualified_locale.obj
 0002:00007054       ??_C@_1M@GHBGIGDA@?$AAc?$AAh?$AAi?$AAn?$AAa?$AA?$AA@ 0042f054     libucrt:get_qualified_locale.obj
 0002:00007060       ??_C@_1M@NCHEJOPO@?$AAc?$AAz?$AAe?$AAc?$AAh?$AA?$AA@ 0042f060     libucrt:get_qualified_locale.obj
 0002:0000706c       ??_C@_1BA@BKPAPBLA@?$AAe?$AAn?$AAg?$AAl?$AAa?$AAn?$AAd?$AA?$AA@ 0042f06c     libucrt:get_qualified_locale.obj
 0002:0000707c       ??_C@_1BM@HKBCKIPC@?$AAg?$AAr?$AAe?$AAa?$AAt?$AA?5?$AAb?$AAr?$AAi?$AAt?$AAa?$AAi?$AAn?$AA?$AA@ 0042f07c     libucrt:get_qualified_locale.obj
 0002:00007098       ??_C@_1BA@PPCHPGJB@?$AAh?$AAo?$AAl?$AAl?$AAa?$AAn?$AAd?$AA?$AA@ 0042f098     libucrt:get_qualified_locale.obj
 0002:000070a8       ??_C@_1BE@JBMPEGDG@?$AAh?$AAo?$AAn?$AAg?$AA?9?$AAk?$AAo?$AAn?$AAg?$AA?$AA@ 0042f0a8     libucrt:get_qualified_locale.obj
 0002:000070bc       ??_C@_1BI@KOELBBPJ@?$AAn?$AAe?$AAw?$AA?9?$AAz?$AAe?$AAa?$AAl?$AAa?$AAn?$AAd?$AA?$AA@ 0042f0bc     libucrt:get_qualified_locale.obj
 0002:000070d4       ??_C@_15HIEBHAIO@?$AAn?$AAz?$AA?$AA@ 0042f0d4     libucrt:get_qualified_locale.obj
 0002:000070dc       ??_C@_1BC@CHBCPFPI@?$AAp?$AAr?$AA?5?$AAc?$AAh?$AAi?$AAn?$AAa?$AA?$AA@ 0042f0dc     libucrt:get_qualified_locale.obj
 0002:000070f0       ??_C@_1BC@JAOIIFKD@?$AAp?$AAr?$AA?9?$AAc?$AAh?$AAi?$AAn?$AAa?$AA?$AA@ 0042f0f0     libucrt:get_qualified_locale.obj
 0002:00007104       ??_C@_1BI@BEHPPHKC@?$AAp?$AAu?$AAe?$AAr?$AAt?$AAo?$AA?9?$AAr?$AAi?$AAc?$AAo?$AA?$AA@ 0042f104     libucrt:get_qualified_locale.obj
 0002:0000711c       ??_C@_1O@PAEOFKDI@?$AAs?$AAl?$AAo?$AAv?$AAa?$AAk?$AA?$AA@ 0042f11c     libucrt:get_qualified_locale.obj
 0002:0000712c       ??_C@_1BK@FIHMCKAM@?$AAs?$AAo?$AAu?$AAt?$AAh?$AA?5?$AAa?$AAf?$AAr?$AAi?$AAc?$AAa?$AA?$AA@ 0042f12c     libucrt:get_qualified_locale.obj
 0002:00007148       ??_C@_1BI@NAEOODKB@?$AAs?$AAo?$AAu?$AAt?$AAh?$AA?5?$AAk?$AAo?$AAr?$AAe?$AAa?$AA?$AA@ 0042f148     libucrt:get_qualified_locale.obj
 0002:00007160       ??_C@_1BK@FBDGGIFF@?$AAs?$AAo?$AAu?$AAt?$AAh?$AA?9?$AAa?$AAf?$AAr?$AAi?$AAc?$AAa?$AA?$AA@ 0042f160     libucrt:get_qualified_locale.obj
 0002:0000717c       ??_C@_1BI@GHLEJDPK@?$AAs?$AAo?$AAu?$AAt?$AAh?$AA?9?$AAk?$AAo?$AAr?$AAe?$AAa?$AA?$AA@ 0042f17c     libucrt:get_qualified_locale.obj
 0002:00007194       ??_C@_1CE@PLHLOMJF@?$AAt?$AAr?$AAi?$AAn?$AAi?$AAd?$AAa?$AAd?$AA?5?$AA?$CG?$AA?5?$AAt?$AAo?$AAb?$AAa?$AAg?$AAo?$AA?$AA@ 0042f194     libucrt:get_qualified_locale.obj
 0002:000071b8       ??_C@_1BO@MODIMHHI@?$AAu?$AAn?$AAi?$AAt?$AAe?$AAd?$AA?9?$AAk?$AAi?$AAn?$AAg?$AAd?$AAo?$AAm?$AA?$AA@ 0042f1b8     libucrt:get_qualified_locale.obj
 0002:000071d8       ??_C@_1BM@FFHJONBJ@?$AAu?$AAn?$AAi?$AAt?$AAe?$AAd?$AA?9?$AAs?$AAt?$AAa?$AAt?$AAe?$AAs?$AA?$AA@ 0042f1d8     libucrt:get_qualified_locale.obj
 0002:000071f8       ___acrt_rg_language        0042f1f8     libucrt:get_qualified_locale.obj
 0002:00007504       ___acrt_rg_language_count  0042f504     libucrt:get_qualified_locale.obj
 0002:00007508       ___acrt_rg_country         0042f508     libucrt:get_qualified_locale.obj
 0002:0000761c       ___acrt_rg_country_count   0042f61c     libucrt:get_qualified_locale.obj
 0002:00007620       ??_C@_17DNCLJFIF@?$AAA?$AAC?$AAP?$AA?$AA@ 0042f620     libucrt:get_qualified_locale.obj
 0002:00007628       ??_C@_17CIKBIHLH@?$AAO?$AAC?$AAP?$AA?$AA@ 0042f628     libucrt:get_qualified_locale.obj
 0002:00007630       ___rglangidNotDefault      0042f630     libucrt:getqloc_downlevel.obj
 0002:00008488       ??_C@_01GBGANLPD@0?$AA@    00430488     libucrt:cfout.obj
 0002:0000848c       ??_C@_05DNEBIAHO@1?$CDINF?$AA@ 0043048c     libucrt:cfout.obj
 0002:00008494       ??_C@_06IMKFLFPG@1?$CDQNAN?$AA@ 00430494     libucrt:cfout.obj
 0002:0000849c       ??_C@_06PGGFOGJG@1?$CDSNAN?$AA@ 0043049c     libucrt:cfout.obj
 0002:000084a4       ??_C@_05PHHOCPM@1?$CDIND?$AA@ 004304a4     libucrt:cfout.obj
 0002:000084b0       ___acrt_pow_rcp_t1         004304b0     libucrt:pow_tables.obj
 0002:000088c0       ___acrt_pow_log2_t1        004308c0     libucrt:pow_tables.obj
 0002:000090d0       ___acrt_pow_rcp_t2         004310d0     libucrt:pow_tables.obj
 0002:000094e0       ___acrt_pow_log2_t2        004314e0     libucrt:pow_tables.obj
 0002:00009cf0       ___acrt_pow_rcp_t3         00431cf0     libucrt:pow_tables.obj
 0002:0000a500       ___acrt_pow_log2_t3        00432500     libucrt:pow_tables.obj
 0002:0000b510       ___acrt_pow_clv            00433510     libucrt:pow_tables.obj
 0002:0000b530       ___acrt_pow_exp2_tbl       00433530     libucrt:pow_tables.obj
 0002:0000bd30       ??_C@_1BA@BALFACEM@?$AAC?$AAO?$AAN?$AAO?$AAU?$AAT?$AA$?$AA?$AA@ 00433d30     libucrt:initcon.obj
 0002:0000bea0       ___acrt_log10_table_t      00433ea0     libucrt:log10_tables.obj
 0002:0000c2b0       ___acrt_log10_table_cb     004342b0     libucrt:log10_tables.obj
 0002:0000c6e0       __load_config_used         004346e0     LIBCMT:loadcfg.obj
 0002:0000c73c       __tls_used                 0043473c     LIBCMT:tlssup.obj
 0002:0000c754       ??_R4exception@std@@6B@    00434754     implant.obj
 0002:0000c768       ??_R3exception@std@@8      00434768     implant.obj
 0002:0000c778       ??_R2exception@std@@8      00434778     implant.obj
 0002:0000c780       ??_R1A@?0A@EA@exception@std@@8 00434780     implant.obj
 0002:0000c79c       ??_R4ios_base@std@@6B@     0043479c     implant.obj
 0002:0000c7b0       ??_R3ios_base@std@@8       004347b0     implant.obj
 0002:0000c7c0       ??_R2ios_base@std@@8       004347c0     implant.obj
 0002:0000c7cc       ??_R1A@?0A@EA@ios_base@std@@8 004347cc     implant.obj
 0002:0000c7e8       ??_R17?0A@EA@?$_Iosb@H@std@@8 004347e8     implant.obj
 0002:0000c804       ??_R3?$_Iosb@H@std@@8      00434804     implant.obj
 0002:0000c814       ??_R2?$_Iosb@H@std@@8      00434814     implant.obj
 0002:0000c81c       ??_R1A@?0A@EA@?$_Iosb@H@std@@8 0043481c     implant.obj
 0002:0000c838       ??_R4?$basic_ios@DU?$char_traits@D@std@@@std@@6B@ 00434838     implant.obj
 0002:0000c84c       ??_R3?$basic_ios@DU?$char_traits@D@std@@@std@@8 0043484c     implant.obj
 0002:0000c85c       ??_R2?$basic_ios@DU?$char_traits@D@std@@@std@@8 0043485c     implant.obj
 0002:0000c86c       ??_R1A@?0A@EA@?$basic_ios@DU?$char_traits@D@std@@@std@@8 0043486c     implant.obj
 0002:0000c888       ??_R4?$basic_streambuf@DU?$char_traits@D@std@@@std@@6B@ 00434888     implant.obj
 0002:0000c89c       ??_R3?$basic_streambuf@DU?$char_traits@D@std@@@std@@8 0043489c     implant.obj
 0002:0000c8ac       ??_R2?$basic_streambuf@DU?$char_traits@D@std@@@std@@8 004348ac     implant.obj
 0002:0000c8b4       ??_R1A@?0A@EA@?$basic_streambuf@DU?$char_traits@D@std@@@std@@8 004348b4     implant.obj
 0002:0000c8d0       ??_R4?$basic_istream@DU?$char_traits@D@std@@@std@@6B@ 004348d0     implant.obj
 0002:0000c8e4       ??_R3?$basic_istream@DU?$char_traits@D@std@@@std@@8 004348e4     implant.obj
 0002:0000c8f4       ??_R2?$basic_istream@DU?$char_traits@D@std@@@std@@8 004348f4     implant.obj
 0002:0000c908       ??_R1A@?0A@EA@?$basic_istream@DU?$char_traits@D@std@@@std@@8 00434908     implant.obj
 0002:0000c924       ??_R1A@A@3FA@?$basic_ios@DU?$char_traits@D@std@@@std@@8 00434924     implant.obj
 0002:0000c940       ??_R1A@A@3EA@ios_base@std@@8 00434940     implant.obj
 0002:0000c95c       ??_R17A@3EA@?$_Iosb@H@std@@8 0043495c     implant.obj
 0002:0000c978       ??_R4?$basic_filebuf@DU?$char_traits@D@std@@@std@@6B@ 00434978     implant.obj
 0002:0000c98c       ??_R3?$basic_filebuf@DU?$char_traits@D@std@@@std@@8 0043498c     implant.obj
 0002:0000c99c       ??_R2?$basic_filebuf@DU?$char_traits@D@std@@@std@@8 0043499c     implant.obj
 0002:0000c9a8       ??_R1A@?0A@EA@?$basic_filebuf@DU?$char_traits@D@std@@@std@@8 004349a8     implant.obj
 0002:0000c9c4       ??_R4?$basic_ifstream@DU?$char_traits@D@std@@@std@@6B@ 004349c4     implant.obj
 0002:0000c9d8       ??_R3?$basic_ifstream@DU?$char_traits@D@std@@@std@@8 004349d8     implant.obj
 0002:0000c9e8       ??_R2?$basic_ifstream@DU?$char_traits@D@std@@@std@@8 004349e8     implant.obj
 0002:0000ca00       ??_R1A@?0A@EA@?$basic_ifstream@DU?$char_traits@D@std@@@std@@8 00434a00     implant.obj
 0002:0000ca1c       ??_R4runtime_error@std@@6B@ 00434a1c     implant.obj
 0002:0000ca30       ??_R3runtime_error@std@@8  00434a30     implant.obj
 0002:0000ca40       ??_R2runtime_error@std@@8  00434a40     implant.obj
 0002:0000ca4c       ??_R1A@?0A@EA@runtime_error@std@@8 00434a4c     implant.obj
 0002:0000ca68       ??_R4bad_cast@std@@6B@     00434a68     implant.obj
 0002:0000ca7c       ??_R3bad_cast@std@@8       00434a7c     implant.obj
 0002:0000ca8c       ??_R2bad_cast@std@@8       00434a8c     implant.obj
 0002:0000ca98       ??_R1A@?0A@EA@bad_cast@std@@8 00434a98     implant.obj
 0002:0000cab4       ??_R4_Facet_base@std@@6B@  00434ab4     implant.obj
 0002:0000cac8       ??_R3_Facet_base@std@@8    00434ac8     implant.obj
 0002:0000cad8       ??_R2_Facet_base@std@@8    00434ad8     implant.obj
 0002:0000cae0       ??_R1A@?0A@EA@_Facet_base@std@@8 00434ae0     implant.obj
 0002:0000cafc       ??_R1A@?0A@EA@facet@locale@std@@8 00434afc     implant.obj
 0002:0000cb18       ??_R3facet@locale@std@@8   00434b18     implant.obj
 0002:0000cb28       ??_R2facet@locale@std@@8   00434b28     implant.obj
 0002:0000cb38       ??_R13?0A@EA@_Crt_new_delete@std@@8 00434b38     implant.obj
 0002:0000cb54       ??_R3_Crt_new_delete@std@@8 00434b54     implant.obj
 0002:0000cb64       ??_R2_Crt_new_delete@std@@8 00434b64     implant.obj
 0002:0000cb6c       ??_R1A@?0A@EA@_Crt_new_delete@std@@8 00434b6c     implant.obj
 0002:0000cb88       ??_R4facet@locale@std@@6B@ 00434b88     implant.obj
 0002:0000cb9c       ??_R4codecvt_base@std@@6B@ 00434b9c     implant.obj
 0002:0000cbb0       ??_R3codecvt_base@std@@8   00434bb0     implant.obj
 0002:0000cbc0       ??_R2codecvt_base@std@@8   00434bc0     implant.obj
 0002:0000cbd4       ??_R1A@?0A@EA@codecvt_base@std@@8 00434bd4     implant.obj
 0002:0000cbf0       ??_R4ctype_base@std@@6B@   00434bf0     implant.obj
 0002:0000cc04       ??_R3ctype_base@std@@8     00434c04     implant.obj
 0002:0000cc14       ??_R2ctype_base@std@@8     00434c14     implant.obj
 0002:0000cc28       ??_R1A@?0A@EA@ctype_base@std@@8 00434c28     implant.obj
 0002:0000cc44       ??_R4?$ctype@D@std@@6B@    00434c44     implant.obj
 0002:0000cc58       ??_R3?$ctype@D@std@@8      00434c58     implant.obj
 0002:0000cc68       ??_R2?$ctype@D@std@@8      00434c68     implant.obj
 0002:0000cc80       ??_R1A@?0A@EA@?$ctype@D@std@@8 00434c80     implant.obj
 0002:0000cc9c       ??_R4error_category@std@@6B@ 00434c9c     implant.obj
 0002:0000ccb0       ??_R3error_category@std@@8 00434cb0     implant.obj
 0002:0000ccc0       ??_R2error_category@std@@8 00434cc0     implant.obj
 0002:0000ccc8       ??_R1A@?0A@EA@error_category@std@@8 00434cc8     implant.obj
 0002:0000cce4       ??_R4_System_error@std@@6B@ 00434ce4     implant.obj
 0002:0000ccf8       ??_R3_System_error@std@@8  00434cf8     implant.obj
 0002:0000cd08       ??_R2_System_error@std@@8  00434d08     implant.obj
 0002:0000cd18       ??_R1A@?0A@EA@_System_error@std@@8 00434d18     implant.obj
 0002:0000cd34       ??_R4system_error@std@@6B@ 00434d34     implant.obj
 0002:0000cd48       ??_R3system_error@std@@8   00434d48     implant.obj
 0002:0000cd58       ??_R2system_error@std@@8   00434d58     implant.obj
 0002:0000cd6c       ??_R1A@?0A@EA@system_error@std@@8 00434d6c     implant.obj
 0002:0000cd88       ??_R4_Generic_error_category@std@@6B@ 00434d88     implant.obj
 0002:0000cd9c       ??_R3_Generic_error_category@std@@8 00434d9c     implant.obj
 0002:0000cdac       ??_R2_Generic_error_category@std@@8 00434dac     implant.obj
 0002:0000cdb8       ??_R1A@?0A@EA@_Generic_error_category@std@@8 00434db8     implant.obj
 0002:0000cdd4       ??_R4_Iostream_error_category@std@@6B@ 00434dd4     implant.obj
 0002:0000cde8       ??_R3_Iostream_error_category@std@@8 00434de8     implant.obj
 0002:0000cdf8       ??_R2_Iostream_error_category@std@@8 00434df8     implant.obj
 0002:0000ce08       ??_R1A@?0A@EA@_Iostream_error_category@std@@8 00434e08     implant.obj
 0002:0000ce24       ??_R4failure@ios_base@std@@6B@ 00434e24     implant.obj
 0002:0000ce38       ??_R3failure@ios_base@std@@8 00434e38     implant.obj
 0002:0000ce48       ??_R2failure@ios_base@std@@8 00434e48     implant.obj
 0002:0000ce60       ??_R1A@?0A@EA@failure@ios_base@std@@8 00434e60     implant.obj
 0002:0000ce7c       ??_R4?$num_put@DV?$ostreambuf_iterator@DU?$char_traits@D@std@@@std@@@std@@6B@ 00434e7c     implant.obj
 0002:0000ce90       ??_R3?$num_put@DV?$ostreambuf_iterator@DU?$char_traits@D@std@@@std@@@std@@8 00434e90     implant.obj
 0002:0000cea0       ??_R2?$num_put@DV?$ostreambuf_iterator@DU?$char_traits@D@std@@@std@@@std@@8 00434ea0     implant.obj
 0002:0000ceb4       ??_R1A@?0A@EA@?$num_put@DV?$ostreambuf_iterator@DU?$char_traits@D@std@@@std@@@std@@8 00434eb4     implant.obj
 0002:0000ced0       ??_R4?$codecvt@DDU_Mbstatet@@@std@@6B@ 00434ed0     implant.obj
 0002:0000cee4       ??_R3?$codecvt@DDU_Mbstatet@@@std@@8 00434ee4     implant.obj
 0002:0000cef4       ??_R2?$codecvt@DDU_Mbstatet@@@std@@8 00434ef4     implant.obj
 0002:0000cf0c       ??_R1A@?0A@EA@?$codecvt@DDU_Mbstatet@@@std@@8 00434f0c     implant.obj
 0002:0000cf28       ??_R4?$numpunct@D@std@@6B@ 00434f28     implant.obj
 0002:0000cf3c       ??_R3?$numpunct@D@std@@8   00434f3c     implant.obj
 0002:0000cf4c       ??_R2?$numpunct@D@std@@8   00434f4c     implant.obj
 0002:0000cf60       ??_R1A@?0A@EA@?$numpunct@D@std@@8 00434f60     implant.obj
 0002:0000cf7c       ??_R4bad_alloc@std@@6B@    00434f7c     libcpmt:xthrow.obj
 0002:0000cf90       ??_R3bad_alloc@std@@8      00434f90     libcpmt:xthrow.obj
 0002:0000cfa0       ??_R2bad_alloc@std@@8      00434fa0     libcpmt:xthrow.obj
 0002:0000cfac       ??_R1A@?0A@EA@bad_alloc@std@@8 00434fac     libcpmt:xthrow.obj
 0002:0000cfc8       ??_R4logic_error@std@@6B@  00434fc8     libcpmt:xthrow.obj
 0002:0000cfdc       ??_R3logic_error@std@@8    00434fdc     libcpmt:xthrow.obj
 0002:0000cfec       ??_R2logic_error@std@@8    00434fec     libcpmt:xthrow.obj
 0002:0000cff8       ??_R1A@?0A@EA@logic_error@std@@8 00434ff8     libcpmt:xthrow.obj
 0002:0000d014       ??_R4length_error@std@@6B@ 00435014     libcpmt:xthrow.obj
 0002:0000d028       ??_R3length_error@std@@8   00435028     libcpmt:xthrow.obj
 0002:0000d038       ??_R2length_error@std@@8   00435038     libcpmt:xthrow.obj
 0002:0000d048       ??_R1A@?0A@EA@length_error@std@@8 00435048     libcpmt:xthrow.obj
 0002:0000d064       ??_R4out_of_range@std@@6B@ 00435064     libcpmt:xthrow.obj
 0002:0000d078       ??_R3out_of_range@std@@8   00435078     libcpmt:xthrow.obj
 0002:0000d088       ??_R2out_of_range@std@@8   00435088     libcpmt:xthrow.obj
 0002:0000d098       ??_R1A@?0A@EA@out_of_range@std@@8 00435098     libcpmt:xthrow.obj
 0002:0000d0b4       ??_R4_Locimp@locale@std@@6B@ 004350b4     libcpmt:locale0.obj
 0002:0000d0c8       ??_R3_Locimp@locale@std@@8 004350c8     libcpmt:locale0.obj
 0002:0000d0d8       ??_R2_Locimp@locale@std@@8 004350d8     libcpmt:locale0.obj
 0002:0000d0ec       ??_R1A@?0A@EA@_Locimp@locale@std@@8 004350ec     libcpmt:locale0.obj
 0002:0000d108       ??_R4?$basic_ostream@DU?$char_traits@D@std@@@std@@6B@ 00435108     libcpmt:cout.obj
 0002:0000d11c       ??_R3?$basic_ostream@DU?$char_traits@D@std@@@std@@8 0043511c     libcpmt:cout.obj
 0002:0000d12c       ??_R2?$basic_ostream@DU?$char_traits@D@std@@@std@@8 0043512c     libcpmt:cout.obj
 0002:0000d140       ??_R1A@?0A@EA@?$basic_ostream@DU?$char_traits@D@std@@@std@@8 00435140     libcpmt:cout.obj
 0002:0000d15c       ??_R4type_info@@6B@        0043515c     LIBCMT:std_type_info_static.obj
 0002:0000d170       ??_R3type_info@@8          00435170     LIBCMT:std_type_info_static.obj
 0002:0000d180       ??_R2type_info@@8          00435180     LIBCMT:std_type_info_static.obj
 0002:0000d188       ??_R1A@?0A@EA@type_info@@8 00435188     LIBCMT:std_type_info_static.obj
 0002:0000d1a4       ??_R4bad_array_new_length@std@@6B@ 004351a4     LIBCMT:throw_bad_alloc.obj
 0002:0000d1b8       ??_R3bad_array_new_length@std@@8 004351b8     LIBCMT:throw_bad_alloc.obj
 0002:0000d1c8       ??_R2bad_array_new_length@std@@8 004351c8     LIBCMT:throw_bad_alloc.obj
 0002:0000d1d8       ??_R1A@?0A@EA@bad_array_new_length@std@@8 004351d8     LIBCMT:throw_bad_alloc.obj
 0002:0000d1f4       ??_R4bad_exception@std@@6B@ 004351f4     libvcruntime:frame.obj
 0002:0000d208       ??_R3bad_exception@std@@8  00435208     libvcruntime:frame.obj
 0002:0000d218       ??_R2bad_exception@std@@8  00435218     libvcruntime:frame.obj
 0002:0000d224       ??_R1A@?0A@EA@bad_exception@std@@8 00435224     libvcruntime:frame.obj
 0002:0000d240       ___safe_se_handler_table   00435240     <linker-defined>
 0002:0000d62c       ___rtc_iaa                 0043562c     LIBCMT:_initsect_.obj
 0002:0000d630       ___rtc_izz                 00435630     LIBCMT:_initsect_.obj
 0002:0000d634       ___rtc_taa                 00435634     LIBCMT:_initsect_.obj
 0002:0000d638       ___rtc_tzz                 00435638     LIBCMT:_initsect_.obj
 0002:0000d98c       __TI2?AVruntime_error@std@@ 0043598c     implant.obj
 0002:0000d99c       __CTA2?AVruntime_error@std@@ 0043599c     implant.obj
 0002:0000d9a8       __CT??_R0?AVruntime_error@std@@@8??0runtime_error@std@@QAE@ABV01@@Z12 004359a8     implant.obj
 0002:0000d9c4       __CT??_R0?AVexception@std@@@8??0exception@std@@QAE@ABV01@@Z12 004359c4     implant.obj
 0002:0000d9e0       __TI5?AVfailure@ios_base@std@@ 004359e0     implant.obj
 0002:0000d9f0       __CTA5?AVfailure@ios_base@std@@ 004359f0     implant.obj
 0002:0000da08       __CT??_R0?AVfailure@ios_base@std@@@8??0failure@ios_base@std@@QAE@ABV012@@Z20 00435a08     implant.obj
 0002:0000da24       __CT??_R0?AVsystem_error@std@@@8??0system_error@std@@QAE@ABV01@@Z20 00435a24     implant.obj
 0002:0000da40       __CT??_R0?AV_System_error@std@@@8??0_System_error@std@@QAE@ABV01@@Z20 00435a40     implant.obj
 0002:0000da5c       __TI2?AVbad_cast@std@@     00435a5c     implant.obj
 0002:0000da6c       __CTA2?AVbad_cast@std@@    00435a6c     implant.obj
 0002:0000da78       __CT??_R0?AVbad_cast@std@@@8??0bad_cast@std@@QAE@ABV01@@Z12 00435a78     implant.obj
 0002:0000da94       __TI2?AVbad_alloc@std@@    00435a94     libcpmt:xthrow.obj
 0002:0000daa4       __CTA2?AVbad_alloc@std@@   00435aa4     libcpmt:xthrow.obj
 0002:0000dab0       __CT??_R0?AVbad_alloc@std@@@8??0bad_alloc@std@@QAE@ABV01@@Z12 00435ab0     libcpmt:xthrow.obj
 0002:0000dacc       __CT??_R0?AVlogic_error@std@@@8??0logic_error@std@@QAE@ABV01@@Z12 00435acc     libcpmt:xthrow.obj
 0002:0000dae8       __TI3?AVlength_error@std@@ 00435ae8     libcpmt:xthrow.obj
 0002:0000daf8       __CTA3?AVlength_error@std@@ 00435af8     libcpmt:xthrow.obj
 0002:0000db08       __CT??_R0?AVlength_error@std@@@8??0length_error@std@@QAE@ABV01@@Z12 00435b08     libcpmt:xthrow.obj
 0002:0000db24       __TI3?AVout_of_range@std@@ 00435b24     libcpmt:xthrow.obj
 0002:0000db34       __CTA3?AVout_of_range@std@@ 00435b34     libcpmt:xthrow.obj
 0002:0000db44       __CT??_R0?AVout_of_range@std@@@8??0out_of_range@std@@QAE@ABV01@@Z12 00435b44     libcpmt:xthrow.obj
 0002:0000dc74       __TI3?AVbad_array_new_length@std@@ 00435c74     LIBCMT:throw_bad_alloc.obj
 0002:0000dc84       __CTA3?AVbad_array_new_length@std@@ 00435c84     LIBCMT:throw_bad_alloc.obj
 0002:0000dc94       __CT??_R0?AVbad_array_new_length@std@@@8??0bad_array_new_length@std@@QAE@ABV01@@Z12 00435c94     LIBCMT:throw_bad_alloc.obj
 0002:0000ddb4       __TI2?AVbad_exception@std@@ 00435db4     libvcruntime:frame.obj
 0002:0000ddc4       __CTA2?AVbad_exception@std@@ 00435dc4     libvcruntime:frame.obj
 0002:0000ddd0       __CT??_R0?AVbad_exception@std@@@8??0bad_exception@std@@QAE@ABV01@@Z12 00435dd0     libvcruntime:frame.obj
 0002:0000e3dc       __IMPORT_DESCRIPTOR_WININET 004363dc     wininet:WININET.dll
 0002:0000e3f0       __IMPORT_DESCRIPTOR_IPHLPAPI 004363f0     iphlpapi:IPHLPAPI.DLL
 0002:0000e404       __IMPORT_DESCRIPTOR_KERNEL32 00436404     kernel32:KERNEL32.dll
 0002:0000e418       __NULL_IMPORT_DESCRIPTOR   00436418     wininet:WININET.dll
 0003:0000022c       ?_Sync@ios_base@std@@0_NA  0043722c     libcpmt:ios.obj
 0003:00000238       ?_PJP_CPP_Copyright@@3PADA 00437238     libcpmt:iosptrs.obj
 0003:0000028c       ___scrt_native_dllmain_reason 0043728c     LIBCMT:utility.obj
 0003:00000290       __Init_global_epoch        00437290     LIBCMT:thread_safe_statics.obj
 0003:00000294       ___security_cookie_complement 00437294     LIBCMT:gs_cookie.obj
 0003:00000298       ___security_cookie         00437298     LIBCMT:gs_cookie.obj
 0003:0000029c       __fltused                  0043729c     LIBCMT:fltused.obj
 0003:000002a0       ___isa_enabled             004372a0     LIBCMT:_cpu_disp_.obj
 0003:000002b0       ___scrt_default_matherr    004372b0     LIBCMT:matherr.obj
 0003:000002d0       __NLG_Destination          004372d0     libvcruntime:_exsup_.obj
 0003:000002f0       __iob                      004372f0     libucrt:_file.obj
 0003:00000398       ___acrt_lconv_static_decimal 00437398     libucrt:localeconv.obj
 0003:0000039c       ___acrt_lconv_static_W_decimal 0043739c     libucrt:localeconv.obj
 0003:000003a0       ___acrt_lconv_c            004373a0     libucrt:localeconv.obj
 0003:000003f0       ___acrt_lconv              004373f0     libucrt:localeconv.obj
 0003:000003f4       __pctype                   004373f4     libucrt:ctype.obj
 0003:000003f8       __pwctype                  004373f8     libucrt:ctype.obj
 0003:000003fc       ___abort_behavior          004373fc     libucrt:abort.obj
 0003:00000408       ___mb_cur_max              00437408     libucrt:nlsdata.obj
 0003:00000410       ___acrt_initial_locale_data 00437410     libucrt:nlsdata.obj
 0003:000004c8       ___acrt_initial_locale_pointers 004374c8     libucrt:nlsdata.obj
 0003:000004d0       ___acrt_wide_c_locale_string 004374d0     libucrt:nlsdata.obj
 0003:000004d8       ___badioinfo               004374d8     libucrt:ioinit.obj
 0003:00000508       __lookuptrailbytes         00437508     libucrt:read.obj
 0003:00000608       ___globallocalestatus      00437608     libucrt:glstatus.obj
 0003:00000790       __mbctype                  00437790     libucrt:mbctype.obj
 0003:00000898       __mbcasemap                00437898     libucrt:mbctype.obj
 0003:00000998       ___acrt_initial_multibyte_data 00437998     libucrt:mbctype.obj
 0003:00000bb8       ___acrt_current_multibyte_data 00437bb8     libucrt:mbctype.obj
 0003:00000bc0       ___dcrt_lowio_console_output_handle 00437bc0     libucrt:initcon.obj
 0003:00000bd0       ??_R0?AVruntime_error@std@@@8 00437bd0     implant.obj
 0003:00000bf0       ??_R0?AVexception@std@@@8  00437bf0     implant.obj
 0003:00000c0c       ??_R0?AVfailure@ios_base@std@@@8 00437c0c     implant.obj
 0003:00000c30       ??_R0?AVsystem_error@std@@@8 00437c30     implant.obj
 0003:00000c50       ??_R0?AV_System_error@std@@@8 00437c50     implant.obj
 0003:00000c70       ??_R0?AVbad_cast@std@@@8   00437c70     implant.obj
 0003:00000c8c       ??_R0?AVios_base@std@@@8   00437c8c     implant.obj
 0003:00000ca8       ??_R0?AV?$_Iosb@H@std@@@8  00437ca8     implant.obj
 0003:00000cc4       ??_R0?AV?$basic_ios@DU?$char_traits@D@std@@@std@@@8 00437cc4     implant.obj
 0003:00000cfc       ??_R0?AV?$basic_streambuf@DU?$char_traits@D@std@@@std@@@8 00437cfc     implant.obj
 0003:00000d38       ??_R0?AV?$basic_istream@DU?$char_traits@D@std@@@std@@@8 00437d38     implant.obj
 0003:00000d74       ??_R0?AV?$basic_filebuf@DU?$char_traits@D@std@@@std@@@8 00437d74     implant.obj
 0003:00000db0       ??_R0?AV?$basic_ifstream@DU?$char_traits@D@std@@@std@@@8 00437db0     implant.obj
 0003:00000dec       ??_R0?AV_Facet_base@std@@@8 00437dec     implant.obj
 0003:00000e0c       ??_R0?AVfacet@locale@std@@@8 00437e0c     implant.obj
 0003:00000e2c       ??_R0?AU_Crt_new_delete@std@@@8 00437e2c     implant.obj
 0003:00000e50       ??_R0?AVcodecvt_base@std@@@8 00437e50     implant.obj
 0003:00000e70       ??_R0?AUctype_base@std@@@8 00437e70     implant.obj
 0003:00000e90       ??_R0?AV?$ctype@D@std@@@8  00437e90     implant.obj
 0003:00000eac       ??_R0?AVerror_category@std@@@8 00437eac     implant.obj
 0003:00000ed0       ??_R0?AV_Generic_error_category@std@@@8 00437ed0     implant.obj
 0003:00000efc       ??_R0?AV_Iostream_error_category@std@@@8 00437efc     implant.obj
 0003:00000f28       ??_R0?AV?$num_put@DV?$ostreambuf_iterator@DU?$char_traits@D@std@@@std@@@std@@@8 00437f28     implant.obj
 0003:00000f7c       ??_R0?AV?$codecvt@DDU_Mbstatet@@@std@@@8 00437f7c     implant.obj
 0003:00000fa8       ??_R0?AV?$numpunct@D@std@@@8 00437fa8     implant.obj
 0003:00000fc8       ??_R0?AVbad_alloc@std@@@8  00437fc8     libcpmt:xthrow.obj
 0003:00000fe4       ??_R0?AVlogic_error@std@@@8 00437fe4     libcpmt:xthrow.obj
 0003:00001004       ??_R0?AVlength_error@std@@@8 00438004     libcpmt:xthrow.obj
 0003:00001024       ??_R0?AVout_of_range@std@@@8 00438024     libcpmt:xthrow.obj
 0003:00001044       ??_R0?AV_Locimp@locale@std@@@8 00438044     libcpmt:locale0.obj
 0003:00001068       ??_R0?AV?$basic_ostream@DU?$char_traits@D@std@@@std@@@8 00438068     libcpmt:cout.obj
 0003:000010a4       ??_R0?AVtype_info@@@8      004380a4     LIBCMT:std_type_info_static.obj
 0003:000010bc       ??_R0?AVbad_array_new_length@std@@@8 004380bc     LIBCMT:throw_bad_alloc.obj
 0003:000010e4       ??_R0?AVbad_exception@std@@@8 004380e4     libvcruntime:frame.obj
 0003:00001108       ?_OptionsStorage@?1??__local_stdio_printf_options@@9@4_KA 00438108     implant.obj
 0003:00001114       ?id@?$codecvt@DDU_Mbstatet@@@std@@2V0locale@2@A 00438114     implant.obj
 0003:00001118       ?id@?$num_put@DV?$ostreambuf_iterator@DU?$char_traits@D@std@@@std@@@std@@2V0locale@2@A 00438118     implant.obj
 0003:0000111c       ?id@?$numpunct@D@std@@2V0locale@2@A 0043811c     implant.obj
 0003:00001120       ?_Stinit@?1??_Init@?$basic_filebuf@DU?$char_traits@D@std@@@std@@IAEXPAU_iobuf@@W4_Initfl@23@@Z@4U_Mbstatet@@A 00438120     implant.obj
 0003:00001128       ?_Psave@?$_Facetptr@V?$ctype@D@std@@@std@@2PBVfacet@locale@2@B 00438128     implant.obj
 0003:0000112c       ?_Static@?1???$_Immortalize@V_Iostream_error_category@std@@@std@@YAAAV_Iostream_error_category@1@XZ@4U?$_Immortalizer@V_Iostream_error_category@std@@@1@A 0043812c     implant.obj
 0003:00001134       ?$TSS0@?1???$_Immortalize@V_Iostream_error_category@std@@@std@@YAAAV_Iostream_error_category@1@XZ@4HA 00438134     implant.obj
 0003:00001138       ?_Psave@?$_Facetptr@V?$codecvt@DDU_Mbstatet@@@std@@@std@@2PBVfacet@locale@2@B 00438138     implant.obj
 0003:0000113c       ?_Psave@?$_Facetptr@V?$num_put@DV?$ostreambuf_iterator@DU?$char_traits@D@std@@@std@@@std@@@std@@2PBVfacet@locale@2@B 0043813c     implant.obj
 0003:00001140       ?_Psave@?$_Facetptr@V?$numpunct@D@std@@@std@@2PBVfacet@locale@2@B 00438140     implant.obj
 0003:00001210       ?_Id_cnt@id@locale@std@@0HA 00438210     libcpmt:locale0.obj
 0003:00001214       ?_Clocptr@_Locimp@locale@std@@0PAV123@A 00438214     libcpmt:locale0.obj
 0003:00001220       ?id@?$ctype@G@std@@2V0locale@2@A 00438220     libcpmt:locale0.obj
 0003:00001224       ?id@?$codecvt@_WDU_Mbstatet@@@std@@2V0locale@2@A 00438224     libcpmt:locale0.obj
 0003:00001228       ?id@?$codecvt@GDU_Mbstatet@@@std@@2V0locale@2@A 00438228     libcpmt:locale0.obj
 0003:0000122c       ?id@?$ctype@_W@std@@2V0locale@2@A 0043822c     libcpmt:locale0.obj
 0003:00001230       ?id@?$ctype@D@std@@2V0locale@2@A 00438230     libcpmt:locale0.obj
 0003:00001240       ?_Index@ios_base@std@@0HA  00438240     libcpmt:ios.obj
 0003:00001280       ?cout@std@@3V?$basic_ostream@DU?$char_traits@D@std@@@1@A 00438280     libcpmt:cout.obj
 0003:00001330       ?cerr@std@@3V?$basic_ostream@DU?$char_traits@D@std@@@1@A 00438330     libcpmt:cerr.obj
 0003:000013d8       ?_Ptr_cin@std@@3PAV?$basic_istream@DU?$char_traits@D@std@@@1@A 004383d8     libcpmt:iosptrs.obj
 0003:000013dc       ?_Ptr_cout@std@@3PAV?$basic_ostream@DU?$char_traits@D@std@@@1@A 004383dc     libcpmt:iosptrs.obj
 0003:000013e0       ?_Ptr_cerr@std@@3PAV?$basic_ostream@DU?$char_traits@D@std@@@1@A 004383e0     libcpmt:iosptrs.obj
 0003:000013e4       ?_Ptr_clog@std@@3PAV?$basic_ostream@DU?$char_traits@D@std@@@1@A 004383e4     libcpmt:iosptrs.obj
 0003:000013e8       ?_Ptr_wcin@std@@3PAV?$basic_istream@_WU?$char_traits@_W@std@@@1@A 004383e8     libcpmt:iosptrs.obj
 0003:000013ec       ?_Ptr_wcout@std@@3PAV?$basic_ostream@_WU?$char_traits@_W@std@@@1@A 004383ec     libcpmt:iosptrs.obj
 0003:000013f0       ?_Ptr_wcerr@std@@3PAV?$basic_ostream@_WU?$char_traits@_W@std@@@1@A 004383f0     libcpmt:iosptrs.obj
 0003:000013f4       ?_Ptr_wclog@std@@3PAV?$basic_ostream@_WU?$char_traits@_W@std@@@1@A 004383f4     libcpmt:iosptrs.obj
 0003:00001424       ?id@?$num_get@DV?$istreambuf_iterator@DU?$char_traits@D@std@@@std@@@std@@2V0locale@2@A 00438424     libcpmt:locale.obj
 0003:00001428       ___encodedKERNEL32Functions 00438428     libcpmt:winapisupp.obj
 0003:000014c8       ?id@?$time_put@_WV?$ostreambuf_iterator@_WU?$char_traits@_W@std@@@std@@@std@@2V0locale@2@A 004384c8     libcpmt:wlocale.obj
 0003:000014cc       ?id@?$num_get@_WV?$istreambuf_iterator@_WU?$char_traits@_W@std@@@std@@@std@@2V0locale@2@A 004384cc     libcpmt:wlocale.obj
 0003:000014d0       ?id@?$num_put@_WV?$ostreambuf_iterator@_WU?$char_traits@_W@std@@@std@@@std@@2V0locale@2@A 004384d0     libcpmt:wlocale.obj
 0003:000014d4       ?id@?$numpunct@_W@std@@2V0locale@2@A 004384d4     libcpmt:wlocale.obj
 0003:000014d8       ?id@?$collate@_W@std@@2V0locale@2@A 004384d8     libcpmt:wlocale.obj
 0003:000014dc       ?id@?$messages@_W@std@@2V0locale@2@A 004384dc     libcpmt:wlocale.obj
 0003:000014e0       ?id@?$money_get@_WV?$istreambuf_iterator@_WU?$char_traits@_W@std@@@std@@@std@@2V0locale@2@A 004384e0     libcpmt:wlocale.obj
 0003:000014e4       ?id@?$money_put@_WV?$ostreambuf_iterator@_WU?$char_traits@_W@std@@@std@@@std@@2V0locale@2@A 004384e4     libcpmt:wlocale.obj
 0003:000014e8       ?id@?$moneypunct@_W$0A@@std@@2V0locale@2@A 004384e8     libcpmt:wlocale.obj
 0003:000014ec       ?id@?$moneypunct@_W$00@std@@2V0locale@2@A 004384ec     libcpmt:wlocale.obj
 0003:000014f0       ?id@?$time_get@_WV?$istreambuf_iterator@_WU?$char_traits@_W@std@@@std@@@std@@2V0locale@2@A 004384f0     libcpmt:wlocale.obj
 0003:000014f4       ?id@?$num_get@GV?$istreambuf_iterator@GU?$char_traits@G@std@@@std@@@std@@2V0locale@2@A 004384f4     libcpmt:wlocale.obj
 0003:000014f8       ?id@?$num_put@GV?$ostreambuf_iterator@GU?$char_traits@G@std@@@std@@@std@@2V0locale@2@A 004384f8     libcpmt:wlocale.obj
 0003:000014fc       ?id@?$numpunct@G@std@@2V0locale@2@A 004384fc     libcpmt:wlocale.obj
 0003:00001500       ?id@?$collate@G@std@@2V0locale@2@A 00438500     libcpmt:wlocale.obj
 0003:00001504       ?id@?$messages@G@std@@2V0locale@2@A 00438504     libcpmt:wlocale.obj
 0003:00001508       ?id@?$money_get@GV?$istreambuf_iterator@GU?$char_traits@G@std@@@std@@@std@@2V0locale@2@A 00438508     libcpmt:wlocale.obj
 0003:0000150c       ?id@?$money_put@GV?$ostreambuf_iterator@GU?$char_traits@G@std@@@std@@@std@@2V0locale@2@A 0043850c     libcpmt:wlocale.obj
 0003:00001510       ?id@?$moneypunct@G$0A@@std@@2V0locale@2@A 00438510     libcpmt:wlocale.obj
 0003:00001514       ?id@?$moneypunct@G$00@std@@2V0locale@2@A 00438514     libcpmt:wlocale.obj
 0003:00001518       ?id@?$time_get@GV?$istreambuf_iterator@GU?$char_traits@G@std@@@std@@@std@@2V0locale@2@A 00438518     libcpmt:wlocale.obj
 0003:0000151c       ?id@?$time_put@GV?$ostreambuf_iterator@GU?$char_traits@G@std@@@std@@@std@@2V0locale@2@A 0043851c     libcpmt:wlocale.obj
 0003:00001520       ?id@?$collate@D@std@@2V0locale@2@A 00438520     libcpmt:xlocale.obj
 0003:00001524       ?id@?$messages@D@std@@2V0locale@2@A 00438524     libcpmt:xlocale.obj
 0003:00001528       ?id@?$money_get@DV?$istreambuf_iterator@DU?$char_traits@D@std@@@std@@@std@@2V0locale@2@A 00438528     libcpmt:xlocale.obj
 0003:0000152c       ?id@?$money_put@DV?$ostreambuf_iterator@DU?$char_traits@D@std@@@std@@@std@@2V0locale@2@A 0043852c     libcpmt:xlocale.obj
 0003:00001530       ?id@?$moneypunct@D$0A@@std@@2V0locale@2@A 00438530     libcpmt:xlocale.obj
 0003:00001534       ?id@?$moneypunct@D$00@std@@2V0locale@2@A 00438534     libcpmt:xlocale.obj
 0003:00001538       ?id@?$time_get@DV?$istreambuf_iterator@DU?$char_traits@D@std@@@std@@@std@@2V0locale@2@A 00438538     libcpmt:xlocale.obj
 0003:0000153c       ?id@?$time_put@DV?$ostreambuf_iterator@DU?$char_traits@D@std@@@std@@@std@@2V0locale@2@A 0043853c     libcpmt:xlocale.obj
 0003:00001540       ___scrt_current_native_startup_state 00438540     LIBCMT:utility.obj
 0003:00001544       ___scrt_native_startup_lock 00438544     LIBCMT:utility.obj
 0003:000018ac       __tls_index                004388ac     LIBCMT:tlssup.obj
 0003:000018b0       ___isa_available           004388b0     LIBCMT:_cpu_disp_.obj
 0003:000018b4       ___favor                   004388b4     LIBCMT:_cpu_disp_.obj
 0003:000018b8       ___scrt_debugger_hook_flag 004388b8     LIBCMT:utility_desktop.obj
 0003:000018c0       ?__type_info_root_node@@3U__type_info_node@@A 004388c0     LIBCMT:tncleanup.obj
 0003:000018c8       ?_OptionsStorage@?1??__local_stdio_scanf_options@@9@4_KA 004388c8     LIBCMT:default_local_stdio_options.obj
 0003:000018d0       ?g_OutOfMemoryExceptionCallback@@3P6GPAXXZA 004388d0     libvcruntime:frame.obj
 0003:00001908       ___pPurecall               00438908     libvcruntime:purevirt_data.obj
 0003:00001950       ?pArgList@UnDecorator@@0PAVReplicator@@A 00438950     libvcruntime:undname.obj
 0003:00001954       ?pZNameList@UnDecorator@@0PAVReplicator@@A 00438954     libvcruntime:undname.obj
 0003:00001958       ?pTemplateArgList@UnDecorator@@0PAVReplicator@@A 00438958     libvcruntime:undname.obj
 0003:0000195c       ?gName@UnDecorator@@0PBDB  0043895c     libvcruntime:undname.obj
 0003:00001960       ?name@UnDecorator@@0PBDB   00438960     libvcruntime:undname.obj
 0003:00001964       ?outputString@UnDecorator@@0PADA 00438964     libvcruntime:undname.obj
 0003:00001968       ?maxStringLength@UnDecorator@@0HA 00438968     libvcruntime:undname.obj
 0003:0000196c       ?disableFlags@UnDecorator@@0KA 0043896c     libvcruntime:undname.obj
 0003:00001970       ?fExplicitTemplateParams@UnDecorator@@0_NA 00438970     libvcruntime:undname.obj
 0003:00001971       ?fGetTemplateArgumentList@UnDecorator@@0_NA 00438971     libvcruntime:undname.obj
 0003:00001974       ?m_pGetParameter@UnDecorator@@0P6APADJ@ZA 00438974     libvcruntime:undname.obj
 0003:0000199c       __nstream                  0043899c     libucrt:_file.obj
 0003:000019a0       ___piob                    004389a0     libucrt:_file.obj
 0003:000019a4       __cflush                   004389a4     libucrt:_file.obj
 0003:000019a8       ___acrt_lconv_static_null  004389a8     libucrt:localeconv.obj
 0003:000019ac       ___acrt_lconv_static_W_null 004389ac     libucrt:localeconv.obj
 0003:00001cfc       __environ_table            00438cfc     libucrt:environment_initialization.obj
 0003:00001d00       __wenviron_table           00438d00     libucrt:environment_initialization.obj
 0003:00001d04       ___dcrt_initial_wide_environment 00438d04     libucrt:environment_initialization.obj
 0003:00001d08       ___dcrt_initial_narrow_environment 00438d08     libucrt:environment_initialization.obj
 0003:00001d0c       ___acrt_atexit_table       00438d0c     libucrt:onexit.obj
 0003:00001d18       ___acrt_at_quick_exit_table 00438d18     libucrt:onexit.obj
 0003:00001d30       ___acrt_locale_changed_data 00438d30     libucrt:wsetlocale.obj
 0003:00001d38       __commode                  00438d38     libucrt:ncommode.obj
 0003:00001e18       ___acrt_current_locale_data 00438e18     libucrt:nlsdata.obj
 0003:00001e20       ___pioinfo                 00438e20     libucrt:ioinit.obj
 0003:00002020       __nhandle                  00439020     libucrt:ioinit.obj
 0003:00002024       ___acrt_stdout_buffer      00439024     libucrt:_sftbuf.obj
 0003:00002028       ___acrt_stderr_buffer      00439028     libucrt:_sftbuf.obj
 0003:00002030       ___acrt_heap               00439030     libucrt:heap_handle.obj
 0003:00002044       ___fastflag                00439044     libucrt:fp_flags.obj
 0003:00002048       ?_timezone@@3V?$dual_state_global@J@__crt_state_management@@A 00439048     libucrt:timeset.obj
 0003:0000204c       ?_daylight@@3V?$dual_state_global@H@__crt_state_management@@A 0043904c     libucrt:timeset.obj
 0003:00002050       ?_dstbias@@3V?$dual_state_global@J@__crt_state_management@@A 00439050     libucrt:timeset.obj
 0003:0000210c       ___mblocalename            0043910c     libucrt:mbctype.obj
 0003:00002110       ___mbcodepage              00439110     libucrt:mbctype.obj
 0003:00002114       ___ismbcodepage            00439114     libucrt:mbctype.obj
 0003:00002118       ___mbulinfo                00439118     libucrt:mbctype.obj
 0003:0000212c       ___argc                    0043912c     libucrt:argv_data.obj
 0003:00002130       ___argv                    00439130     libucrt:argv_data.obj
 0003:00002134       ___wargv                   00439134     libucrt:argv_data.obj
 0003:00002138       __acmdln                   00439138     libucrt:argv_data.obj
 0003:0000213c       __wcmdln                   0043913c     libucrt:argv_data.obj
 0003:00002140       __wpgmptr                  00439140     libucrt:argv_data.obj
 0003:00002144       __fmode                    00439144     libucrt:txtmode.obj
 0003:0000214c       __umaskval                 0043914c     libucrt:umask.obj
 0003:00002150       ___dyn_tls_dtor_callback   00439150     <common>
 0003:00002154       ___dyn_tls_init_callback   00439154     <common>
 0003:00002158       ___scrt_ucrt_dll_is_in_use 00439158     <common>
 0003:0000215c       __pmatherr                 0043915c     <common>
 0003:00002160       ___use_sse2_mathfcns       00439160     <common>
 0005:00000000       __tls_start                0043b000     LIBCMT:tlssup.obj
 0005:00000004       __Init_thread_epoch        0043b004     LIBCMT:thread_safe_statics.obj
 0005:00000008       __tls_end                  0043b008     LIBCMT:tlssup.obj

 entry point at        0001:0000b433

 Static symbols

 0001:00000000       ??__E?id@?$codecvt@DDU_Mbstatet@@@std@@2V0locale@2@A@@YAXXZ 00401000 f   implant.obj
 0001:00000020       ??__E?id@?$num_put@DV?$ostreambuf_iterator@DU?$char_traits@D@std@@@std@@@std@@2V0locale@2@A@@YAXXZ 00401020 f   implant.obj
 0001:00000040       ??__E?id@?$numpunct@D@std@@2V0locale@2@A@@YAXXZ 00401040 f   implant.obj
 0001:00000051       ??__Einitlocks@std@@YAXXZ  00401051 f   libcpmt:xlock.obj
 0001:00000067       ??__E_Fac_tidy_reg@std@@YAXXZ 00401067 f   libcpmt:locale0.obj
 0001:00000073       ??__Eclassic_locale@std@@YAXXZ 00401073 f   libcpmt:locale0.obj
 0001:0000007f       ??__Ecout@std@@YAXXZ       0040107f f   libcpmt:cout.obj
 0001:0000009e       ??__Efout@std@@YAXXZ       0040109e f   libcpmt:cout.obj
 0001:000000d8       ??__Einit_cout@std@@YAXXZ  004010d8 f   libcpmt:cout.obj
 0001:000000e2       ??__Einitlocks@@YAXXZ      004010e2 f   libcpmt:cout.obj
 0001:000000f8       ??__Ecerr@std@@YAXXZ       004010f8 f   libcpmt:cerr.obj
 0001:00000117       ??__Eferr@std@@YAXXZ       00401117 f   libcpmt:cerr.obj
 0001:00000151       ??__Einit_cerr@std@@YAXXZ  00401151 f   libcpmt:cerr.obj
 0001:0000015b       ??__Einitlocks@@YAXXZ      0040115b f   libcpmt:cerr.obj
 0001:00000171       ??__Einit_atexit@@YAXXZ    00401171 f   libcpmt:iosptrs.obj
 0001:0000017d       ??__Einitlocks@std@@YAXXZ  0040117d f   libcpmt:iosptrs.obj
 0001:000001a0       _memcpy_s                  004011a0 f   implant.obj
 0001:000011ff       __catch$??$?6U?$char_traits@D@std@@@std@@YAAAV?$basic_ostream@DU?$char_traits@D@std@@@0@AAV10@PBD@Z$0 004021ff f i implant.obj
 0001:0000224b       __catch$??0?$vector@DV?$allocator@D@std@@@std@@QAE@I@Z$0 0040324b f i implant.obj
 0001:00003174       __catch$??6?$basic_ostream@DU?$char_traits@D@std@@@std@@QAEAAV01@K@Z$0 00404174 f i implant.obj
 0001:00003c8b       __catch$?_Copy@?$basic_string@DU?$char_traits@D@std@@V?$allocator@D@2@@std@@QAEXII@Z$0 00404c8b f i implant.obj
 0001:00003cb3       __catch$?_Copy@?$basic_string@DU?$char_traits@D@std@@V?$allocator@D@2@@std@@QAEXII@Z$1 00404cb3 f i implant.obj
 0001:00004fb5       __catch$?_Init@?$numpunct@D@std@@IAEXABV_Locinfo@2@_N@Z$0 00405fb5 f i implant.obj
 0001:00005307       __catch$?_Ipfx@?$basic_istream@DU?$char_traits@D@std@@@std@@QAE_N_N@Z$0 00406307 f i implant.obj
 0001:00005998       __catch$?_Osfx@?$basic_ostream@DU?$char_traits@D@std@@@std@@QAEXXZ$0 00406998 f i implant.obj
 0001:000081dc       __catch$?put@?$basic_ostream@DU?$char_traits@D@std@@@std@@QAEAAV12@D@Z$0 004091dc f i implant.obj
 0001:000083b3       __catch$?read@?$basic_istream@DU?$char_traits@D@std@@@std@@QAEAAV12@PAD_J@Z$0 004093b3 f i implant.obj
 0001:00009f49       _tidy_global               0040af49 f   libcpmt:locale0.obj
 0001:0000a5de       ?initialize_pointers@@YAHXZ 0040b5de f   libcpmt:winapisupp.obj
 0001:0000ab53       ?find_pe_section@@YAPAU_IMAGE_SECTION_HEADER@@QAEI@Z 0040bb53 f   LIBCMT:utility.obj
 0001:0000afba       ?__scrt_initialize_thread_safe_statics@@YAHXZ 0040bfba f   LIBCMT:thread_safe_statics.obj
 0001:0000b07a       ?__scrt_uninitialize_thread_safe_statics@@YAXXZ 0040c07a f   LIBCMT:thread_safe_statics.obj
 0001:0000b20d       ?pre_c_initialization@@YAHXZ 0040c20d f   LIBCMT:exe_wwinmain.obj
 0001:0000b2b1       ?post_pgo_initialization@@YAHXZ 0040c2b1 f   LIBCMT:exe_wwinmain.obj
 0001:0000b2b9       ?pre_cpp_initialization@@YAXXZ 0040c2b9 f   LIBCMT:exe_wwinmain.obj
 0001:0000b2cb       ?__scrt_common_main_seh@@YAHXZ 0040c2cb f   LIBCMT:exe_wwinmain.obj
 0001:0000b4d0       $$000000                   0040c4d0     LIBCMT:alloca16.obj
 0001:0000b500       $$000000                   0040c500     LIBCMT:llmul.obj
 0001:0000b540       $$000000                   0040c540     LIBCMT:ulldiv.obj
 0001:0000b90d       _no_op_initialize          0040c90d f   libucrt:wsetlocale.obj
 0001:0000b910       ?is_managed_app@@YA_NXZ    0040c910 f   libucrt:exit.obj
 0001:0000b9b0       $$000000                   0040c9b0     LIBCMT:_sehprolg4_.obj
 0001:0000bb70       $$000000                   0040cb70     LIBCMT:chkstk.obj
 0001:0000bbe0       $$000000                   0040cbe0     libvcruntime:memcpy.obj
 0001:0000be44       TrailingUpVec              0040ce44     libvcruntime:memcpy.obj
 0001:0000bef0       TrailingDownVec            0040cef0     libvcruntime:memcpy.obj
 0001:0000c160       $$000000                   0040d160     libvcruntime:memmove.obj
 0001:0000c3c4       TrailingUpVec              0040d3c4     libvcruntime:memmove.obj
 0001:0000c470       TrailingDownVec            0040d470     libvcruntime:memmove.obj
 0001:0000c6e0       $$000000                   0040d6e0     libvcruntime:memset.obj
 0001:0000c840       $$000000                   0040d840     libvcruntime:strstr.obj
 0001:0000d030       ?CallCatchBlock@@YAPAXPAUEHExceptionRecord@@PAUEHRegistrationNode@@PAU_CONTEXT@@PBU_s_FuncInfo@@PAXHK@Z 0040e030 f   libvcruntime:frame.obj
 0001:0000d1ec       ?CallUnexpected@@YAXPBU_s_ESTypeList@@@Z 0040e1ec f   libvcruntime:frame.obj
 0001:0000d20c       __catch$?CallUnexpected@@YAXPBU_s_ESTypeList@@@Z$0 0040e20c f   libvcruntime:frame.obj
 0001:0000d226       ?CatchIt@@YAXPAUEHExceptionRecord@@PAUEHRegistrationNode@@PAU_CONTEXT@@PAXPBU_s_FuncInfo@@PBU_s_HandlerType@@PBU_s_CatchableType@@PBU_s_TryBlockMapEntry@@H1E@Z 0040e226 f   libvcruntime:frame.obj
 0001:0000d2a1       ?ExFilterRethrow@@YAHPAU_EXCEPTION_POINTERS@@@Z 0040e2a1 f   libvcruntime:frame.obj
 0001:0000d2eb       ?FindHandler@@YAXPAUEHExceptionRecord@@PAUEHRegistrationNode@@PAU_CONTEXT@@PAXPBU_s_FuncInfo@@EH1@Z 0040e2eb f   libvcruntime:frame.obj
 0001:0000d653       ?FindHandlerForForeignException@@YAXPAUEHExceptionRecord@@PAUEHRegistrationNode@@PAU_CONTEXT@@PAXPBU_s_FuncInfo@@HH1@Z 0040e653 f   libvcruntime:frame.obj
 0001:0000d76e       ?IsInExceptionSpec@@YAEPAUEHExceptionRecord@@PBU_s_ESTypeList@@@Z 0040e76e f   libvcruntime:frame.obj
 0001:0000d80a       ?Is_bad_exception_allowed@@YAEPBU_s_ESTypeList@@@Z 0040e80a f   libvcruntime:frame.obj
 0001:0000dce0       $$000000                   0040ece0     libvcruntime:memchr.obj
 0001:0000f48d       $LN1281                    0041048d     libvcruntime:_memcmp_.obj
 0001:0000f560       _ValidateLocalCookies      00410560 f   libvcruntime:_chandler4_.obj
 0001:0000f723       ?try_get_function@@YAPAXW4function_id@?A0x89697e75@@QBDQBW4module_id@2@2@Z 00410723 f   libvcruntime:winapi_downlevel.obj
 0001:0000f7c3       ?try_get_module@@YAPAUHINSTANCE__@@W4module_id@?A0x89697e75@@@Z 004107c3 f   libvcruntime:winapi_downlevel.obj
 0001:0000fa40       $$000000                   00410a40     libvcruntime:strchr.obj
 0001:0000fc80       $$000000                   00410c80     libvcruntime:lowhelpr.obj
 0001:0000fd60       $$000000                   00410d60     libvcruntime:_exsup4_.obj
 0001:0000fdf0       __unwind_handler4          00410df0 f   libvcruntime:_exsup4_.obj
 0001:0000fec0       $$000000                   00410ec0     libvcruntime:_exsup_.obj
 0001:0000fee0       __unwind_handler           00410ee0 f   libvcruntime:_exsup_.obj
 0001:000102b0       $$000000                   004112b0     libucrt:strcmp.obj
 0001:00010340       $$000000                   00411340     libucrt:strcat.obj
 0001:00010440       $$000000                   00411440     libucrt:strcspn.obj
 0001:00010490       $$000000                   00411490     libucrt:strlen.obj
 0001:00010536       ?atexit_exception_filter@@YAHK@Z 00411536 f   libucrt:exit.obj
 0001:00010549       ?common_exit@@YAXHW4_crt_exit_cleanup_mode@@W4_crt_exit_return_mode@@@Z 00411549 f   libucrt:exit.obj
 0001:00010662       ?exit_or_terminate_process@@YAXI@Z 00411662 f   libucrt:exit.obj
 0001:000106a3       ?try_cor_exit_process@@YAXI@Z 004116a3 f   libucrt:exit.obj
 0001:00011796       _common_flush_all          00412796 f   libucrt:fflush.obj
 0001:00011a60       ??$common_fsopen@D@@YAPAU_iobuf@@QBD0H@Z 00412a60 f   libucrt:fopen.obj
 0001:00011eec       _memcpy_s                  00412eec f   libucrt:cfout.obj
 0001:00011eec       _memcpy_s                  00412eec f   libucrt:strtod.obj
 0001:00011eec       _memcpy_s                  00412eec f   libucrt:fread.obj
 0001:00011eec       _memcpy_s                  00412eec f   libucrt:mbctype.obj
 0001:00012029       ?common_fseek@@YAHV__crt_stdio_stream@@_JH@Z 00413029 f   libucrt:fseek.obj
 0001:000120b0       ?common_fseek_binary_mode_read_only_fast_track_nolock@@YA_NV__crt_stdio_stream@@_JH@Z 004130b0 f   libucrt:fseek.obj
 0001:00012189       ?common_fseek_nolock@@YAHV__crt_stdio_stream@@_JH@Z 00413189 f   libucrt:fseek.obj
 0001:00012298       ??$common_ftell@J@@YAJV__crt_stdio_stream@@@Z 00413298 f   libucrt:ftell.obj
 0001:00012305       ??$common_ftell@_J@@YA_JV__crt_stdio_stream@@@Z 00413305 f   libucrt:ftell.obj
 0001:00012381       ??$common_ftell_nolock@J@@YAJV__crt_stdio_stream@@@Z 00413381 f   libucrt:ftell.obj
 0001:000123ac       ??$common_ftell_nolock@_J@@YA_JV__crt_stdio_stream@@@Z 004133ac f   libucrt:ftell.obj
 0001:00012541       ?common_ftell_read_mode_nolock@@YA_JV__crt_stdio_stream@@_J1@Z 00413541 f   libucrt:ftell.obj
 0001:000126c5       ?common_ftell_translated_utf8_nolock@@YA_JV__crt_stdio_stream@@_J@Z 004136c5 f   libucrt:ftell.obj
 0001:000128fa       ??R<lambda_b51c0495177f500e782686251704ae76>@@QBEIXZ 004138fa f   libucrt:fwrite.obj
 0001:00012c58       ??R<lambda_b721fa326cdb32351d23dfa67958c160>@@QBEHXZ 00413c58 f   libucrt:setvbuf.obj
 0001:00012cf2       ?set_buffer@@YAHV__crt_stdio_stream@@QADIH@Z 00413cf2 f   libucrt:setvbuf.obj
 0001:00012efa       ??$common_vsprintf@Vformat_validation_base@__crt_stdio_output@@D@@YAH_KQADIQBDQAU__crt_locale_pointers@@1@Z 00413efa f   libucrt:output.obj
 0001:00013076       ??$common_vsprintf@Vstandard_base@__crt_stdio_output@@D@@YAH_KQADIQBDQAU__crt_locale_pointers@@1@Z 00414076 f   libucrt:output.obj
 0001:000131f2       ??$common_vsprintf_s@D@@YAH_KQADIQBDQAU__crt_locale_pointers@@1@Z 004141f2 f   libucrt:output.obj
 0001:00013803       $LN52                      00414803     libucrt:output.obj
 0001:0001391f       $LN54                      0041491f     libucrt:output.obj
 0001:00013e3d       $LN19                      00414e3d     libucrt:output.obj
 0001:00014c0c       ?x_ismbbtype_l@@YAHPAU__crt_locale_pointers@@IHH@Z 00415c0c f   libucrt:ismbbyte.obj
 0001:00014c7d       _call_wsetlocale           00415c7d f   libucrt:setlocale.obj
 0001:00015480       $$000000                   00416480     libucrt:pow.obj
 0001:00015a4b       ??$common_tox_l@$1?internal_isupper_l@@YA_NHQAU__crt_locale_pointers@@@Z$1?internal_map_lower@@YAHH0@Z@@YAHHKQAU__crt_locale_pointers@@@Z 00416a4b f   libucrt:tolower_toupper.obj
 0001:00015b95       ?internal_isupper_l@@YA_NHQAU__crt_locale_pointers@@@Z 00416b95 f   libucrt:tolower_toupper.obj
 0001:00015e4a       ??$common_configure_argv@_W@@YAHW4_crt_argv_mode@@@Z 00416e4a f   libucrt:argv_parsing.obj
 0001:00015f69       ??$parse_command_line@_W@@YAXPA_WPAPA_W0PAI2@Z 00416f69 f   libucrt:argv_parsing.obj
 0001:0001614f       ??$common_initialize_environment_nolock@_W@@YAHXZ 0041714f f   libucrt:environment_initialization.obj
 0001:000161a3       ??$create_environment@_W@@YAQAPA_WQA_W@Z 004171a3 f   libucrt:environment_initialization.obj
 0001:0001629d       ??$free_environment@_W@@YAXQAPA_W@Z 0041729d f   libucrt:environment_initialization.obj
 0001:0001629d       ??$free_environment@D@@YAXQAPAD@Z 0041729d f   libucrt:environment_initialization.obj
 0001:0001630c       ??$uninitialize_environment_internal@D@@YAXAAPAPAD@Z 0041730c f   libucrt:environment_initialization.obj
 0001:00016327       ??$uninitialize_environment_internal@_W@@YAXAAPAPA_W@Z 00417327 f   libucrt:environment_initialization.obj
 0001:0001648f       ??R<lambda_275893d493268fdec8709772e3fcec0e>@@QBEHXZ 0041748f f   libucrt:onexit.obj
 0001:000165af       ??R<lambda_4e60a939b0d047cfe11ddc22648dfba9>@@QBEHXZ 004175af f   libucrt:onexit.obj
 0001:00016784       _initialize_global_variables 00417784 f   libucrt:initialization.obj
 0001:00016796       _initialize_c              00417796 f   libucrt:initialization.obj
 0001:000167b0       _uninitialize_environment  004177b0 f   libucrt:initialization.obj
 0001:000167b8       _uninitialize_global_state_isolation 004177b8 f   libucrt:initialization.obj
 0001:000167b8       _initialize_environment    004177b8 f   libucrt:initialization.obj
 0001:000167b8       _uninitialize_c            004177b8 f   libucrt:initialization.obj
 0001:000167b8       _report_memory_leaks       004177b8 f   libucrt:initialization.obj
 0001:000167b8       _initialize_global_state_isolation 004177b8 f   libucrt:initialization.obj
 0001:000167bb       _initialize_pointers       004177bb f   libucrt:initialization.obj
 0001:000167f8       _uninitialize_vcruntime    004177f8 f   libucrt:initialization.obj
 0001:00016801       _uninitialize_allocated_memory 00417801 f   libucrt:initialization.obj
 0001:00016c03       ??R<lambda_2af78c5f5901b1372d98f9ab3177dfa6>@@QBEXXZ 00417c03 f   libucrt:wsetlocale.obj
 0001:00016c5f       ??R<lambda_e378711a6f6581bf7f0efd7cdf97f5d9>@@QBEXXZ 00417c5f f   libucrt:wsetlocale.obj
 0001:00017021       __copytlocinfo_nolock      00418021 f   libucrt:wsetlocale.obj
 0001:00017488       __wsetlocale_get_all       00418488 f   libucrt:wsetlocale.obj
 0001:00017621       __wsetlocale_nolock        00418621 f   libucrt:wsetlocale.obj
 0001:00017906       __wsetlocale_set_cat       00418906 f   libucrt:wsetlocale.obj
 0001:00017fe9       ?construct_ptd@@YAXQAU__acrt_ptd@@QAPAU__crt_locale_data@@@Z 00418fe9 f   libucrt:per_thread_data.obj
 0001:00018062       ?destroy_fls@@YGXPAX@Z     00419062 f   libucrt:per_thread_data.obj
 0001:00018083       ?destroy_ptd@@YAXQAU__acrt_ptd@@@Z 00419083 f   libucrt:per_thread_data.obj
 0001:0001812c       ?replace_current_thread_locale_nolock@@YAXQAU__acrt_ptd@@QAU__crt_locale_data@@@Z 0041912c f   libucrt:per_thread_data.obj
 0001:000182c6       ?<helper_func_stdcall>@<lambda_5a01b672d24c8480ee9d6bdb50dd3881>@@CGHPA_W@Z 004192c6 f   libucrt:winapi_thunks.obj
 0001:000183b8       ?try_get_CompareStringEx@@YAP6GHPB_WK0H0HPAU_nlsversioninfo@@PAXJ@ZXZ 004193b8 f   libucrt:winapi_thunks.obj
 0001:000183d2       ?try_get_function@@YAPAXW4function_id@?A0x352e5c4b@@QBDQBW4module_id@2@2@Z 004193d2 f   libucrt:winapi_thunks.obj
 0001:0001846e       ?try_get_module@@YAPAUHINSTANCE__@@W4module_id@?A0x352e5c4b@@@Z 0041946e f   libucrt:winapi_thunks.obj
 0001:00019695       ?initialize_inherited_file_handles_nolock@@YAXXZ 0041a695 f   libucrt:ioinit.obj
 0001:0001974b       ?initialize_stdio_handles_nolock@@YAXXZ 0041a74b f   libucrt:ioinit.obj
 0001:00019b08       ?find_or_allocate_unused_stream_nolock@@YA?AV__crt_stdio_stream@@XZ 0041ab08 f   libucrt:stream.obj
 0001:00019cfa       ?write_double_translated_ansi_nolock@@YA?AUwrite_result@?A0x47fa6670@@HQBDI@Z 0041acfa f   libucrt:write.obj
 0001:00019ead       ?write_double_translated_unicode_nolock@@YA?AUwrite_result@?A0x47fa6670@@QBDI@Z 0041aead f   libucrt:write.obj
 0001:00019f1a       ?write_requires_double_translation_nolock@@YA_NH@Z 0041af1a f   libucrt:write.obj
 0001:00019f90       ?write_text_ansi_nolock@@YA?AUwrite_result@?A0x47fa6670@@HQBDI@Z 0041af90 f   libucrt:write.obj
 0001:0001a06f       ?write_text_utf16le_nolock@@YA?AUwrite_result@?A0x47fa6670@@HQBDI@Z 0041b06f f   libucrt:write.obj
 0001:0001a15d       ?write_text_utf8_nolock@@YA?AUwrite_result@?A0x47fa6670@@HQBDI@Z 0041b15d f   libucrt:write.obj
 0001:0001a581       ??$common_refill_and_read_nolock@D@@YAHV__crt_stdio_stream@@@Z 0041b581 f   libucrt:_filbuf.obj
 0001:0001a93f       ??$common_openfile@D@@YAPAU_iobuf@@QBD0HV__crt_stdio_stream@@@Z 0041b93f f   libucrt:openfile.obj
 0001:0001aac2       ??$common_flush_and_write_nolock@D@@YAHHV__crt_stdio_stream@@@Z 0041bac2 f   libucrt:_flsbuf.obj
 0001:0001abd3       ??$write_buffer_nolock@D@@YA_NDV__crt_stdio_stream@@@Z 0041bbd3 f   libucrt:_flsbuf.obj
 0001:0001acaa       ??$translate_text_mode_nolock@D@@YAHHQADI@Z 0041bcaa f   libucrt:read.obj
 0001:0001ae01       ??$translate_text_mode_nolock@_W@@YAHHQA_WI@Z 0041be01 f   libucrt:read.obj
 0001:0001afc1       ?translate_ansi_or_utf8_nolock@@YAHHQADIQA_WI@Z 0041bfc1 f   libucrt:read.obj
 0001:0001b111       ?translate_utf16_from_console_nolock@@YAHHQA_WI@Z 0041c111 f   libucrt:read.obj
 0001:0001b65a       ??$common_lseek@J@@YAJHJH@Z 0041c65a f   libucrt:lseek.obj
 0001:0001b745       ??$common_lseek@_J@@YA_JH_JH@Z 0041c745 f   libucrt:lseek.obj
 0001:0001b84a       ??$common_lseek_nolock@J@@YAJHJH@Z 0041c84a f   libucrt:lseek.obj
 0001:0001b8a1       ??$common_lseek_nolock@_J@@YA_JH_JH@Z 0041c8a1 f   libucrt:lseek.obj
 0001:0001b91f       ?common_lseek_do_seek_nolock@@YAJQAXJH@Z 0041c91f f   libucrt:lseek.obj
 0001:0001be37       ?fp_format_a@@YAHQBNPADIQADIH_NIQAU__crt_locale_pointers@@@Z 0041ce37 f   libucrt:cvt.obj
 0001:0001c13a       ?fp_format_e@@YAHQBNQADI1IH_NIQAU__crt_locale_pointers@@@Z 0041d13a f   libucrt:cvt.obj
 0001:0001c1d5       ?fp_format_e_internal@@YAHQADIH_NIQAU_strflt@@1QAU__crt_locale_pointers@@@Z 0041d1d5 f   libucrt:cvt.obj
 0001:0001c320       ?fp_format_f@@YAHQBNQADI1IHQAU__crt_locale_pointers@@@Z 0041d320 f   libucrt:cvt.obj
 0001:0001c3ad       ?fp_format_f_internal@@YAHQADIHQAU_strflt@@_NQAU__crt_locale_pointers@@@Z 0041d3ad f   libucrt:cvt.obj
 0001:0001c484       ?fp_format_g@@YAHQBNQADI1IH_NIQAU__crt_locale_pointers@@@Z 0041d484 f   libucrt:cvt.obj
 0001:0001c54c       ?fp_format_nan_or_infinity@@YAHW4__acrt_fp_class@@_NPADI1@Z 0041d54c f   libucrt:cvt.obj
 0001:0001c644       ?shift_bytes@@YAXQADI0H@Z  0041d644 f   libucrt:cvt.obj
 0001:0001c7f2       ?InternalGetLocaleInfoA@@YAHQAU__crt_locale_pointers@@QB_WKQADH@Z 0041d7f2 f   libucrt:getlocaleinfoa.obj
 0001:0001cbbc       ?__acrt_LCMapStringA_stat@@YAHPAU__crt_locale_pointers@@PB_WKPBDHPADHHH@Z 0041dbbc f   libucrt:lcmapstringa.obj
 0001:0001ce24       ?_mbstowcs_l_helper@@YAIPA_WPBDIPAU__crt_locale_pointers@@@Z 0041de24 f   libucrt:mbstowcs.obj
 0001:0001d0a0       ?_wcstombs_l_helper@@YAIPADPB_WIPAU__crt_locale_pointers@@@Z 0041e0a0 f   libucrt:wcstombs.obj
 0001:0001d470       ?get_global_action_nolock@@YAPAP6AXH@ZH@Z 0041e470 f   libucrt:signal.obj
 0001:0001d4b2       ?siglookup@@YAPAU__crt_signal_action_t@@HQAU1@@Z 0041e4b2 f   libucrt:signal.obj
 0001:0001d7f0       $$000000                   0041e7f0     libucrt:pow_pentium4.obj
 0001:0001e310       $$000000                   0041f310     libucrt:87tran.obj
 0001:0001e510       $$000000                   0041f510     libucrt:87disp.obj
 0001:0001e710       $$000000                   0041f710     libucrt:genexcep.obj
 0001:0001e770       $$000000                   0041f770     libucrt:common.obj
 0001:0001ec76       ?<helper_func_cdecl>@<lambda_a75c72a202f46efc7a9b191949c2fc0f>@@CAHPBX0@Z 0041fc76 f   libucrt:argv_wildcards.obj
 0001:0001ec8e       ??$common_expand_argv_wildcards@_W@@YAHQAPA_WQAPAPA_W@Z 0041fc8e f   libucrt:argv_wildcards.obj
 0001:0001ee5b       ??$copy_and_add_argument_to_buffer@_W@@YAHQB_W0IAAV?$argument_list@_W@?A0xb0e4b824@@@Z 0041fe5b f   libucrt:argv_wildcards.obj
 0001:0001eef9       ??$expand_argument_wildcards@_W@@YAHQA_W0AAV?$argument_list@_W@?A0xb0e4b824@@@Z 0041fef9 f   libucrt:argv_wildcards.obj
 0001:0001f206       ??R<lambda_ad1ced32f4ac17aa236e5ef05d6b3b7c>@@QBEXXZ 00420206 f   libucrt:mbctype.obj
 0001:0001f2ca       ?CPtoLocaleName@@YAPB_WH@Z 004202ca f   libucrt:mbctype.obj
 0001:0001f308       ?getSystemCP@@YAHH@Z       00420308 f   libucrt:mbctype.obj
 0001:0001f37b       ?setSBCS@@YAXPAU__crt_multibyte_data@@@Z 0042037b f   libucrt:mbctype.obj
 0001:0001f3e0       ?setSBUpLow@@YAXPAU__crt_multibyte_data@@@Z 004203e0 f   libucrt:mbctype.obj
 0001:0001f574       ?setmbcp_internal@@YAHH_N@Z 00420574 f   libucrt:mbctype.obj
 0001:0001f93f       ?find_end_of_double_null_terminated_sequence@@YAPB_WQB_W@Z 0042093f f   libucrt:get_environment_from_os.obj
 0001:0001fb83       ??$common_tcsncpy_s@_W@@YAHQA_WIQB_WI@Z 00420b83 f   libucrt:wcsncpy_s.obj
 0001:000207c8       ?free_crt_array_internal@@YAXQAPBXI@Z 004217c8 f   libucrt:inittime.obj
 0001:00020804       ?initialize_lc_time@@YA_NQAU__crt_lc_time_data@@QAU__crt_locale_data@@@Z 00421804 f   libucrt:inittime.obj
 0001:00021044       _GetLocaleNameFromDefault  00422044 f   libucrt:get_qualified_locale.obj
 0001:000210cd       _GetLocaleNameFromLangCountry 004220cd f   libucrt:get_qualified_locale.obj
 0001:00021167       _GetLocaleNameFromLanguage 00422167 f   libucrt:get_qualified_locale.obj
 0001:000211c2       _GetPrimaryLen             004221c2 f   libucrt:get_qualified_locale.obj
 0001:000211f6       _LangCountryEnumProcEx@12  004221f6 f   libucrt:get_qualified_locale.obj
 0001:000214e0       _LanguageEnumProcEx@12     004224e0 f   libucrt:get_qualified_locale.obj
 0001:000215a1       _ProcessCodePage           004225a1 f   libucrt:get_qualified_locale.obj
 0001:00021688       _TestDefaultCountry        00422688 f   libucrt:get_qualified_locale.obj
 0001:000216d3       _TranslateName             004226d3 f   libucrt:get_qualified_locale.obj
 0001:00021911       _CountryEnumProc@4         00422911 f   libucrt:getqloc_downlevel.obj
 0001:000219ba       _GetLcidFromCountry        004229ba f   libucrt:getqloc_downlevel.obj
 0001:00021a05       _GetLcidFromLangCountry    00422a05 f   libucrt:getqloc_downlevel.obj
 0001:00021aa0       _GetLcidFromLanguage       00422aa0 f   libucrt:getqloc_downlevel.obj
 0001:00021b01       _GetPrimaryLen             00422b01 f   libucrt:getqloc_downlevel.obj
 0001:00021b2d       _LangCountryEnumProc@4     00422b2d f   libucrt:getqloc_downlevel.obj
 0001:00021d7d       _LanguageEnumProc@4        00422d7d f   libucrt:getqloc_downlevel.obj
 0001:00021e55       _LcidFromHexString         00422e55 f   libucrt:getqloc_downlevel.obj
 0001:00021ea6       _ProcessCodePage           00422ea6 f   libucrt:getqloc_downlevel.obj
 0001:00021f89       _TestDefaultCountry        00422f89 f   libucrt:getqloc_downlevel.obj
 0001:00021fad       _TestDefaultLanguage       00422fad f   libucrt:getqloc_downlevel.obj
 0001:0002201d       _TranslateName             0042301d f   libucrt:getqloc_downlevel.obj
 0001:00022281       ___hw_cw_sse2              00423281 f   libucrt:ieee87.obj
 0001:0002270c       __hw_cw                    0042370c f   libucrt:ieee87.obj
 0001:000227a5       ?GetTableIndexFromLocaleName@@YAHPB_W@Z 004237a5 f   libucrt:lcidtoname_downlevel.obj
 0001:00022b90       $$000000                   00423b90     libucrt:strncmp.obj
 0001:00022d2b       ??$common_sopen_dispatch@D@@YAHQBDHHHQAHH@Z 00423d2b f   libucrt:open.obj
 0001:00022df7       ?configure_text_mode@@YAHHUfile_options@?A0x704126de@@HAAW4__crt_lowio_text_mode@@@Z 00423df7 f   libucrt:open.obj
 0001:00023044       ?create_file@@YAPAXQB_WQAU_SECURITY_ATTRIBUTES@@Ufile_options@?A0x704126de@@@Z 00424044 f   libucrt:open.obj
 0001:00023069       ?decode_open_create_flags@@YAKH@Z 00424069 f   libucrt:open.obj
 0001:000230d9       ?decode_options@@YA?AUfile_options@?A0x704126de@@HHH@Z 004240d9 f   libucrt:open.obj
 0001:00023255       ?truncate_ctrl_z_if_present@@YAHH@Z 00424255 f   libucrt:open.obj
 0001:00024b21       ??$common_tcsncpy_s@D@@YAHQADIQBDI@Z 00425b21 f   libucrt:strncpy_s.obj
 0001:00024bdd       ___get_abstract_control_sse2 00425bdd f   libucrt:_fenvutils.obj
 0001:00024c5a       ___get_abstract_control_x87 00425c5a f   libucrt:_fenvutils.obj
 0001:00024ccd       ___get_machine_control     00425ccd f   libucrt:_fenvutils.obj
 0001:00024d3e       ___get_machine_control_sse2 00425d3e f   libucrt:_fenvutils.obj
 0001:00024dbe       ___get_machine_status_sse2 00425dbe f   libucrt:_fenvutils.obj
 0001:00024e1f       ___get_machine_status_x87  00425e1f f   libucrt:_fenvutils.obj
 0001:00025470       ?shortsort@@YAXPAD0IP6AHPBX1@Z@Z 00426470 f   libucrt:qsort.obj
 0001:00025510       ?swap@@YAXPAD0I@Z          00426510 f   libucrt:qsort.obj
 0001:000258f0       $$000000                   004268f0     libucrt:strpbrk.obj
 0001:00025930       ?initialize_multibyte@@YAHXZ 00426930 f   libucrt:multibyte_initializer.obj
 0001:00025972       ??$common_xtox@K_W@@YAHKQA_WII_N@Z 00426972 f   libucrt:xtoa.obj
 0001:00025a00       ??$common_xtox_s@K_W@@YAHKQA_WII_N@Z 00426a00 f   libucrt:xtoa.obj
 0001:00025ad0       $$000000                   00426ad0     libucrt:_strnicm.obj
 0001:00025e40       $$000000                   00426e40     libucrt:log10.obj
 0001:00025f90       $$000000                   00426f90     libucrt:ceil_pentium4.obj
 0001:000260f0       $$000000                   004270f0     libucrt:log10_pentium4.obj
 0001:00026590       $$000000                   00427590     LIBCMT:ulldvrm.obj
 0001:00026630       $$000000                   00427630     LIBCMT:_sehprolg4gs_.obj
 0001:00026690       $$000000                   00427690     LIBCMT:lldiv.obj
 0001:00026740       $$000000                   00427740     LIBCMT:llshl.obj
 0001:00026760       $$000000                   00427760     LIBCMT:ullshr.obj
 0001:00026780       $$000000                   00427780     LIBCMT:lldvrm.obj
 0001:00026860       $$000000                   00427860     LIBCMT:_ftol2_.obj
 0001:00026920       $$000000                   00427920     libvcruntime:strrchr.obj
 0001:00026b10       __ehhandler$??$?6U?$char_traits@D@std@@@std@@YAAAV?$basic_ostream@DU?$char_traits@D@std@@@0@AAV10@PBD@Z 00427b10 f   implant.obj
 0001:00026b30       __ehhandler$??0?$vector@DV?$allocator@D@std@@@std@@QAE@I@Z 00427b30 f   implant.obj
 0001:00026b50       __ehhandler$??6?$basic_ostream@DU?$char_traits@D@std@@@std@@QAEAAV01@K@Z 00427b50 f   implant.obj
 0001:00026b70       __ehhandler$?_Copy@?$basic_string@DU?$char_traits@D@std@@V?$allocator@D@2@@std@@QAEXII@Z 00427b70 f   implant.obj
 0001:00026b90       __ehhandler$?_Init@?$numpunct@D@std@@IAEXABV_Locinfo@2@_N@Z 00427b90 f   implant.obj
 0001:00026bc0       __ehhandler$?_Ipfx@?$basic_istream@DU?$char_traits@D@std@@@std@@QAE_N_N@Z 00427bc0 f   implant.obj
 0001:00026be0       __ehhandler$?_Osfx@?$basic_ostream@DU?$char_traits@D@std@@@std@@QAEXXZ 00427be0 f   implant.obj
 0001:00026c00       __ehhandler$?put@?$basic_ostream@DU?$char_traits@D@std@@@std@@QAEAAV12@D@Z 00427c00 f   implant.obj
 0001:00026c20       __ehhandler$?read@?$basic_istream@DU?$char_traits@D@std@@@std@@QAEAAV12@PAD_J@Z 00427c20 f   implant.obj
 0001:00026c3b       __ehhandler$??1_Fac_node@std@@QAE@XZ 00427c3b f   libcpmt:locale0.obj
 0001:00026c56       __ehhandler$??1_Locimp@locale@std@@MAE@XZ 00427c56 f   libcpmt:locale0.obj
 0001:00026c56       __ehhandler$??1_Init_atexit@@QAE@XZ 00427c56 f   libcpmt:iosptrs.obj
 0001:00026c71       __unwindfunclet$?_Init@locale@std@@CAPAV_Locimp@12@_N@Z$0 00427c71 f   libcpmt:locale0.obj
 0001:00026c79       __ehhandler$?_Init@locale@std@@CAPAV_Locimp@12@_N@Z 00427c79 f   libcpmt:locale0.obj
 0001:00026c94       __unwindfunclet$?_Locimp_dtor@_Locimp@locale@std@@CAXPAV123@@Z$0 00427c94 f   libcpmt:locale0.obj
 0001:00026c9c       __ehhandler$?_Locimp_dtor@_Locimp@locale@std@@CAXPAV123@@Z 00427c9c f   libcpmt:locale0.obj
 0001:00026cb7       __unwindfunclet$??0?$basic_ostream@DU?$char_traits@D@std@@@std@@QAE@PAV?$basic_streambuf@DU?$char_traits@D@std@@@1@_N@Z$0 00427cb7 f   libcpmt:cout.obj
 0001:00026cd3       __ehhandler$??0?$basic_ostream@DU?$char_traits@D@std@@@std@@QAE@PAV?$basic_streambuf@DU?$char_traits@D@std@@@1@_N@Z 00427cd3 f   libcpmt:cout.obj
 0001:00026cee       __unwindfunclet$??_D?$basic_ostream@DU?$char_traits@D@std@@@std@@QAEXXZ$2 00427cee f   libcpmt:cout.obj
 0001:00026cf4       __ehhandler$??_D?$basic_ostream@DU?$char_traits@D@std@@@std@@QAEXXZ 00427cf4 f   libcpmt:cout.obj
 0001:00026d0f       __ehhandler$?CallUnexpected@@YAXPBU_s_ESTypeList@@@Z 00427d0f f   libvcruntime:frame.obj
 0001:00026d3f       ??__Finitlocks@std@@YAXXZ  00427d3f f   libcpmt:xlock.obj
 0001:00026d49       ??__F_Fac_tidy_reg@std@@YAXXZ 00427d49 f   libcpmt:locale0.obj
 0001:00026d53       ??__Fclassic_locale@std@@YAXXZ 00427d53 f   libcpmt:locale0.obj
 0001:00026d5d       ??__Fcout@std@@YAXXZ       00427d5d f   libcpmt:cout.obj
 0001:00026d67       ??__Ffout@std@@YAXXZ       00427d67 f   libcpmt:cout.obj
 0001:00026d71       ??__Finitlocks@@YAXXZ      00427d71 f   libcpmt:cout.obj
 0001:00026d7b       ??__Fcerr@std@@YAXXZ       00427d7b f   libcpmt:cerr.obj
 0001:00026d85       ??__Fferr@std@@YAXXZ       00427d85 f   libcpmt:cerr.obj
 0001:00026d8f       ??__Finitlocks@@YAXXZ      00427d8f f   libcpmt:cerr.obj
 0001:00026d99       ??__Finit_atexit@@YAXXZ    00427d99 f   libcpmt:iosptrs.obj
 0001:00026da3       ??__Finitlocks@std@@YAXXZ  00427da3 f   libcpmt:iosptrs.obj
 0002:00000170       ?pre_cpp_initializer@@3P6AXXZA 00428170     LIBCMT:exe_wwinmain.obj
 0002:00000174       ?initlocks$initializer$@std@@3P6AXXZA 00428174     libcpmt:xlock.obj
 0002:00000178       ?initlocks$initializer$@@3P6AXXZA 00428178     libcpmt:cout.obj
 0002:0000017c       ?fout$initializer$@std@@3P6AXXZA 0042817c     libcpmt:cout.obj
 0002:00000180       ?cout$initializer$@std@@3P6AXXZA 00428180     libcpmt:cout.obj
 0002:00000184       ?init_cout$initializer$@std@@3P6AXXZA 00428184     libcpmt:cout.obj
 0002:00000188       ?initlocks$initializer$@@3P6AXXZA 00428188     libcpmt:cerr.obj
 0002:0000018c       ?ferr$initializer$@std@@3P6AXXZA 0042818c     libcpmt:cerr.obj
 0002:00000190       ?cerr$initializer$@std@@3P6AXXZA 00428190     libcpmt:cerr.obj
 0002:00000194       ?init_cerr$initializer$@std@@3P6AXXZA 00428194     libcpmt:cerr.obj
 0002:00000198       ?initlocks$initializer$@std@@3P6AXXZA 00428198     libcpmt:iosptrs.obj
 0002:0000019c       ?init_atexit$initializer$@@3P6AXXZA 0042819c     libcpmt:iosptrs.obj
 0002:000001a0       ?_Fac_tidy_reg$initializer$@std@@3P6AXXZA 004281a0     libcpmt:locale0.obj
 0002:000001a4       ?classic_locale$initializer$@std@@3P6AXXZA 004281a4     libcpmt:locale0.obj
 0002:000001a8       ??id$initializer$@?$num_put@DV?$ostreambuf_iterator@DU?$char_traits@D@std@@@std@@@std@@2P6AXXZA@@3P6AXXZA 004281a8     implant.obj
 0002:000001ac       ??id$initializer$@?$codecvt@DDU_Mbstatet@@@std@@2P6AXXZA@@3P6AXXZA 004281ac     implant.obj
 0002:000001b0       ??id$initializer$@?$numpunct@D@std@@2P6AXXZA@@3P6AXXZA 004281b0     implant.obj
 0002:000001bc       ?pre_c_initializer@@3P6AHXZA 004281bc     LIBCMT:exe_wwinmain.obj
 0002:000001c0       ?post_pgo_initializer@@3P6AHXZA 004281c0     LIBCMT:exe_wwinmain.obj
 0002:000001c4       ?pinit@@3P6AHXZA           004281c4     libcpmt:winapisupp.obj
 0002:000001c8       ?__scrt_initialize_tss_var@@3P6AHXZA 004281c8     LIBCMT:thread_safe_statics.obj
 0002:00000210       $SG121958                  00428210     implant.obj
 0002:00000224       $SG121959                  00428224     implant.obj
 0002:00000254       $SG121961                  00428254     implant.obj
 0002:00000268       $SG121960                  00428268     implant.obj
 0002:0000035c       $SG121962                  0042835c     implant.obj
 0002:00000360       $SG121963                  00428360     implant.obj
 0002:00000368       $SG121965                  00428368     implant.obj
 0002:0000037c       $SG121973                  0042837c     implant.obj
 0002:0000039c       $SG122015                  0042839c     implant.obj
 0002:000003b0       $SG122023                  004283b0     implant.obj
 0002:000003bc       $SG122026                  004283bc     implant.obj
 0002:000003c4       $SG122027                  004283c4     implant.obj
 0002:000003d8       $SG122029                  004283d8     implant.obj
 0002:000003ec       $SG122030                  004283ec     implant.obj
 0002:000003f4       $SG122031                  004283f4     implant.obj
 0002:00000408       $SG123165                  00428408     implant.obj
 0002:00000420       $SG123166                  00428420     implant.obj
 0002:00000424       $SG121664                  00428424     implant.obj
 0002:00000428       $SG121665                  00428428     implant.obj
 0002:00000458       $SG121666                  00428458     implant.obj
 0002:0000049c       $SG121667                  0042849c     implant.obj
 0002:000004c4       $SG121672                  004284c4     implant.obj
 0002:000004d0       $SG121668                  004284d0     implant.obj
 0002:0000058c       $SG121671                  0042858c     implant.obj
 0002:00000594       $SG121673                  00428594     implant.obj
 0002:000005a0       $SG121674                  004285a0     implant.obj
 0002:000005ac       $SG121675                  004285ac     implant.obj
 0002:000005c0       $SG121676                  004285c0     implant.obj
 0002:000005c4       $SG121677                  004285c4     implant.obj
 0002:000005cc       $SG121690                  004285cc     implant.obj
 0002:00000600       $SG121691                  00428600     implant.obj
 0002:00000614       $SG121692                  00428614     implant.obj
 0002:00000628       $SG121693                  00428628     implant.obj
 0002:00000e28       ?_Win_errtab@std@@3QBU_Win_errtab_t@1@B 00428e28     libcpmt:syserror.obj
 0002:00001078       ?_Sys_errtab@std@@3QBU_Sys_errtab_t@1@B 00429078     libcpmt:syserror.obj
 0002:000014f8       ?mods@?1??_Xfsopen@std@@YAPAU_iobuf@@PBDHH@Z@4QBQBDB 004294f8     libcpmt:fiopen.obj
 0002:00001950       ?LcidToLocaleNameTable@@3QBULcidToLocaleName@@B 00429950     libcpmt:winapinls.obj
 0002:00002070       ?LocaleNameToIndexTable@@3QBULocaleNameIndex@@B 0042a070     libcpmt:winapinls.obj
 0002:00003a08       _digits                    0042ba08     libcpmt:xstoul.obj
 0002:00003a30       _ndigs                     0042ba30     libcpmt:xstoul.obj
 0002:00003a58       _digits                    0042ba58     libcpmt:xstoull.obj
 0002:00003a80       _ndigs                     0042ba80     libcpmt:xstoull.obj
 0002:00003aa8       _GS_ExceptionPointers      0042baa8     LIBCMT:gs_report.obj
 0002:00003adc       ?ExceptionTemplate@?1??_CxxThrowException@@9@8@4UEHExceptionRecord@@B 0042badc     libvcruntime:throw.obj
 0002:00003b1c       ?module_names@?A0x89697e75@@3QBQB_WB 0042bb1c     libvcruntime:winapi_downlevel.obj
 0002:00003bcc       ?candidate_modules@?1??try_get_FlsAlloc@@YAP6GKP6GXPAX@Z@ZXZ@4QBW4module_id@?A0x89697e75@@B 0042bbcc     libvcruntime:winapi_downlevel.obj
 0002:00003bd4       ?candidate_modules@?1??try_get_FlsFree@@YAP6GHK@ZXZ@4QBW4module_id@?A0x89697e75@@B 0042bbd4     libvcruntime:winapi_downlevel.obj
 0002:00003bdc       ?candidate_modules@?1??try_get_FlsGetValue@@YAP6GPAXK@ZXZ@4QBW4module_id@?A0x89697e75@@B 0042bbdc     libvcruntime:winapi_downlevel.obj
 0002:00003be4       ?candidate_modules@?1??try_get_FlsSetValue@@YAP6GHKPAX@ZXZ@4QBW4module_id@?A0x89697e75@@B 0042bbe4     libvcruntime:winapi_downlevel.obj
 0002:00003bec       ?candidate_modules@?1??try_get_InitializeCriticalSectionEx@@YAP6GHPAU_RTL_CRITICAL_SECTION@@KK@ZXZ@4QBW4module_id@?A0x89697e75@@B 0042bbec     libvcruntime:winapi_downlevel.obj
 0002:00003bf8       ?tokenTable@@3QBQBDB       0042bbf8     libvcruntime:undname.obj
 0002:00003c30       ?nameTable@@3QBQBDB        0042bc30     libvcruntime:undname.obj
 0002:00003d74       ?rttiTable@@3QBQBDB        0042bd74     libvcruntime:undname.obj
 0002:00004350       _errtable                  0042c350     libucrt:errno.obj
 0002:000057a0       POW_name                   0042d7a0     libucrt:pow.obj
 0002:00005850       ___acrt_initializers       0042d850     libucrt:initialization.obj
 0002:00005990       __first_127char            0042d990     libucrt:wsetlocale.obj
 0002:00005a38       _module_names              0042da38     libucrt:winapi_thunks.obj
 0002:00005ed8       ?candidate_modules@?1??try_get_AreFileApisANSI@@YAP6GHXZXZ@4QBW4module_id@?A0x352e5c4b@@B 0042ded8     libucrt:winapi_thunks.obj
 0002:00005eec       ?candidate_modules@?1??try_get_CompareStringEx@@YAP6GHPB_WK0H0HPAU_nlsversioninfo@@PAXJ@ZXZ@4QBW4module_id@?A0x352e5c4b@@B 0042deec     libucrt:winapi_thunks.obj
 0002:00005ef4       ?candidate_modules@?1??try_get_EnumSystemLocalesEx@@YAP6GHP6GHPA_WKJ@ZKJPAX@ZXZ@4QBW4module_id@?A0x352e5c4b@@B 0042def4     libucrt:winapi_thunks.obj
 0002:00005f10       ?candidate_modules@?1??try_get_FlsAlloc@@YAP6GKP6GXPAX@Z@ZXZ@4QBW4module_id@?A0x352e5c4b@@B 0042df10     libucrt:winapi_thunks.obj
 0002:00005f18       ?candidate_modules@?1??try_get_FlsFree@@YAP6GHK@ZXZ@4QBW4module_id@?A0x352e5c4b@@B 0042df18     libucrt:winapi_thunks.obj
 0002:00005f20       ?candidate_modules@?1??try_get_FlsGetValue@@YAP6GPAXK@ZXZ@4QBW4module_id@?A0x352e5c4b@@B 0042df20     libucrt:winapi_thunks.obj
 0002:00005f28       ?candidate_modules@?1??try_get_FlsSetValue@@YAP6GHKPAX@ZXZ@4QBW4module_id@?A0x352e5c4b@@B 0042df28     libucrt:winapi_thunks.obj
 0002:00005f30       ?candidate_modules@?1??try_get_GetCurrentPackageId@@YAP6GJPAIPAE@ZXZ@4QBW4module_id@?A0x352e5c4b@@B 0042df30     libucrt:winapi_thunks.obj
 0002:00005f38       ?candidate_modules@?1??try_get_GetLocaleInfoEx@@YAP6GHPB_WKPA_WH@ZXZ@4QBW4module_id@?A0x352e5c4b@@B 0042df38     libucrt:winapi_thunks.obj
 0002:00005f40       ?candidate_modules@?1??try_get_GetUserDefaultLocaleName@@YAP6GHPA_WH@ZXZ@4QBW4module_id@?A0x352e5c4b@@B 0042df40     libucrt:winapi_thunks.obj
 0002:00005f64       ?candidate_modules@?1??try_get_InitializeCriticalSectionEx@@YAP6GHPAU_RTL_CRITICAL_SECTION@@KK@ZXZ@4QBW4module_id@?A0x352e5c4b@@B 0042df64     libucrt:winapi_thunks.obj
 0002:00005f6c       ?candidate_modules@?1??try_get_IsValidLocaleName@@YAP6GHPB_W@ZXZ@4QBW4module_id@?A0x352e5c4b@@B 0042df6c     libucrt:winapi_thunks.obj
 0002:00005f88       ?candidate_modules@?1??try_get_LCMapStringEx@@YAP6GHPB_WK0HPA_WHPAU_nlsversioninfo@@PAXJ@ZXZ@4QBW4module_id@?A0x352e5c4b@@B 0042df88     libucrt:winapi_thunks.obj
 0002:00005f90       ?candidate_modules@?1??try_get_LCIDToLocaleName@@YAP6GHKPA_WHK@ZXZ@4QBW4module_id@?A0x352e5c4b@@B 0042df90     libucrt:winapi_thunks.obj
 0002:00005fac       ?candidate_modules@?1??try_get_LocaleNameToLCID@@YAP6GKPB_WK@ZXZ@4QBW4module_id@?A0x352e5c4b@@B 0042dfac     libucrt:winapi_thunks.obj
 0002:00006520       ?_names@?1??_get_fname@@9@9 0042e520     libucrt:fpexcept.obj
 0002:00006648       _over                      0042e648     libucrt:fpctrl.obj
 0002:00006654       _under                     0042e654     libucrt:fpctrl.obj
 0002:000066d0       Shifter                    0042e6d0     libucrt:pow_pentium4.obj
 0002:000066e0       SIGMASK                    0042e6e0     libucrt:pow_pentium4.obj
 0002:000066f0       ONEMASK                    0042e6f0     libucrt:pow_pentium4.obj
 0002:00006700       ABSVALMASK                 0042e700     libucrt:pow_pentium4.obj
 0002:00006710       cev                        0042e710     libucrt:pow_pentium4.obj
 0002:00006738       HALFSIG                    0042e738     libucrt:pow_pentium4.obj
 0002:00006740       LHN                        0042e740     libucrt:pow_pentium4.obj
 0002:00006748       sNaN                       0042e748     libucrt:pow_pentium4.obj
 0002:00006750       INF                        0042e750     libucrt:pow_pentium4.obj
 0002:00006758       NEG_INF                    0042e758     libucrt:pow_pentium4.obj
 0002:00006760       NEG_ZERO                   0042e760     libucrt:pow_pentium4.obj
 0002:00006768       NEG_BIG                    0042e768     libucrt:pow_pentium4.obj
 0002:00006770       POS_BIG                    0042e770     libucrt:pow_pentium4.obj
 0002:00006778       EMIN                       0042e778     libucrt:pow_pentium4.obj
 0002:00006780       QIND                       0042e780     libucrt:pow_pentium4.obj
 0002:000067ae       _log2max                   0042e7ae     libucrt:87tran.obj
 0002:000067b8       _smallarg                  0042e7b8     libucrt:87tran.obj
 0002:000067c2       _half                      0042e7c2     libucrt:87tran.obj
 0002:0000680e       One                        0042e80e     libucrt:87disp.obj
 0002:00006816       Three                      0042e816     libucrt:87disp.obj
 0002:0000681e       XAMtoTagTab                0042e81e     libucrt:87disp.obj
 0002:00006830       One                        0042e830     libucrt:common.obj
 0002:00006844       DblMax                     0042e844     libucrt:common.obj
 0002:0000684c       DblMin                     0042e84c     libucrt:common.obj
 0002:00006854       IeeeAdjO                   0042e854     libucrt:common.obj
 0002:0000685c       IeeeAdjU                   0042e85c     libucrt:common.obj
 0002:00006864       _infinity                  0042e864     libucrt:common.obj
 0002:0000686c       _zero                      0042e86c     libucrt:common.obj
 0002:00006880       __mb_locale_names          0042e880     libucrt:mbctype.obj
 0002:00007648       _LcidToLocaleNameTable     0042f648     libucrt:lcidtoname_downlevel.obj
 0002:00007d68       _LocaleNameToIndexTable    0042fd68     libucrt:lcidtoname_downlevel.obj
 0002:0000bd40       LOG_name                   00433d40     libucrt:log10.obj
 0002:0000bd50       _One                       00433d50     libucrt:ceil_pentium4.obj
 0002:0000bd60       _Bns                       00433d60     libucrt:ceil_pentium4.obj
 0002:0000bd70       _Zero                      00433d70     libucrt:ceil_pentium4.obj
 0002:0000bd80       _S                         00433d80     libucrt:ceil_pentium4.obj
 0002:0000bd90       _NegZero                   00433d90     libucrt:ceil_pentium4.obj
 0002:0000bda0       emask                      00433da0     libucrt:log10_pentium4.obj
 0002:0000bdb0       CC                         00433db0     libucrt:log10_pentium4.obj
 0002:0000bdc0       Magic                      00433dc0     libucrt:log10_pentium4.obj
 0002:0000bdd0       hi_mask                    00433dd0     libucrt:log10_pentium4.obj
 0002:0000bde0       LOG10_2                    00433de0     libucrt:log10_pentium4.obj
 0002:0000bdf0       place_L                    00433df0     libucrt:log10_pentium4.obj
 0002:0000be10       One                        00433e10     libucrt:log10_pentium4.obj
 0002:0000be20       Zero                       00433e20     libucrt:log10_pentium4.obj
 0002:0000be30       Two52                      00433e30     libucrt:log10_pentium4.obj
 0002:0000be40       Infs                       00433e40     libucrt:log10_pentium4.obj
 0002:0000be50       NaN                        00433e50     libucrt:log10_pentium4.obj
 0002:0000be60       coeff                      00433e60     libucrt:log10_pentium4.obj
 0002:0000d640       __catchsym$?_Copy@?$basic_string@DU?$char_traits@D@std@@V?$allocator@D@2@@std@@QAEXII@Z$5 00435640     implant.obj
 0002:0000d650       __catchsym$?_Copy@?$basic_string@DU?$char_traits@D@std@@V?$allocator@D@2@@std@@QAEXII@Z$4 00435650     implant.obj
 0002:0000d660       __unwindtable$?_Copy@?$basic_string@DU?$char_traits@D@std@@V?$allocator@D@2@@std@@QAEXII@Z 00435660     implant.obj
 0002:0000d680       __ehfuncinfo$?_Copy@?$basic_string@DU?$char_traits@D@std@@V?$allocator@D@2@@std@@QAEXII@Z 00435680     implant.obj
 0002:0000d6a4       __tryblocktable$?_Copy@?$basic_string@DU?$char_traits@D@std@@V?$allocator@D@2@@std@@QAEXII@Z 004356a4     implant.obj
 0002:0000d6cc       __catchsym$?_Osfx@?$basic_ostream@DU?$char_traits@D@std@@@std@@QAEXXZ$2 004356cc     implant.obj
 0002:0000d6dc       __unwindtable$?_Osfx@?$basic_ostream@DU?$char_traits@D@std@@@std@@QAEXXZ 004356dc     implant.obj
 0002:0000d6ec       __tryblocktable$?_Osfx@?$basic_ostream@DU?$char_traits@D@std@@@std@@QAEXXZ 004356ec     implant.obj
 0002:0000d700       __ehfuncinfo$?_Osfx@?$basic_ostream@DU?$char_traits@D@std@@@std@@QAEXXZ 00435700     implant.obj
 0002:0000d724       __catchsym$??6?$basic_ostream@DU?$char_traits@D@std@@@std@@QAEAAV01@K@Z$2 00435724     implant.obj
 0002:0000d734       __unwindtable$??6?$basic_ostream@DU?$char_traits@D@std@@@std@@QAEAAV01@K@Z 00435734     implant.obj
 0002:0000d744       __tryblocktable$??6?$basic_ostream@DU?$char_traits@D@std@@@std@@QAEAAV01@K@Z 00435744     implant.obj
 0002:0000d758       __ehfuncinfo$??6?$basic_ostream@DU?$char_traits@D@std@@@std@@QAEAAV01@K@Z 00435758     implant.obj
 0002:0000d77c       __catchsym$?put@?$basic_ostream@DU?$char_traits@D@std@@@std@@QAEAAV12@D@Z$2 0043577c     implant.obj
 0002:0000d78c       __unwindtable$?put@?$basic_ostream@DU?$char_traits@D@std@@@std@@QAEAAV12@D@Z 0043578c     implant.obj
 0002:0000d79c       __tryblocktable$?put@?$basic_ostream@DU?$char_traits@D@std@@@std@@QAEAAV12@D@Z 0043579c     implant.obj
 0002:0000d7b0       __ehfuncinfo$?put@?$basic_ostream@DU?$char_traits@D@std@@@std@@QAEAAV12@D@Z 004357b0     implant.obj
 0002:0000d7d4       __catchsym$??$?6U?$char_traits@D@std@@@std@@YAAAV?$basic_ostream@DU?$char_traits@D@std@@@0@AAV10@PBD@Z$2 004357d4     implant.obj
 0002:0000d7e4       __unwindtable$??$?6U?$char_traits@D@std@@@std@@YAAAV?$basic_ostream@DU?$char_traits@D@std@@@0@AAV10@PBD@Z 004357e4     implant.obj
 0002:0000d7f4       __tryblocktable$??$?6U?$char_traits@D@std@@@std@@YAAAV?$basic_ostream@DU?$char_traits@D@std@@@0@AAV10@PBD@Z 004357f4     implant.obj
 0002:0000d808       __ehfuncinfo$??$?6U?$char_traits@D@std@@@std@@YAAAV?$basic_ostream@DU?$char_traits@D@std@@@0@AAV10@PBD@Z 00435808     implant.obj
 0002:0000d82c       __catchsym$?_Ipfx@?$basic_istream@DU?$char_traits@D@std@@@std@@QAE_N_N@Z$2 0043582c     implant.obj
 0002:0000d83c       __unwindtable$?_Ipfx@?$basic_istream@DU?$char_traits@D@std@@@std@@QAE_N_N@Z 0043583c     implant.obj
 0002:0000d84c       __tryblocktable$?_Ipfx@?$basic_istream@DU?$char_traits@D@std@@@std@@QAE_N_N@Z 0043584c     implant.obj
 0002:0000d860       __ehfuncinfo$?_Ipfx@?$basic_istream@DU?$char_traits@D@std@@@std@@QAE_N_N@Z 00435860     implant.obj
 0002:0000d884       __catchsym$?read@?$basic_istream@DU?$char_traits@D@std@@@std@@QAEAAV12@PAD_J@Z$2 00435884     implant.obj
 0002:0000d894       __unwindtable$?read@?$basic_istream@DU?$char_traits@D@std@@@std@@QAEAAV12@PAD_J@Z 00435894     implant.obj
 0002:0000d8a4       __tryblocktable$?read@?$basic_istream@DU?$char_traits@D@std@@@std@@QAEAAV12@PAD_J@Z 004358a4     implant.obj
 0002:0000d8b8       __ehfuncinfo$?read@?$basic_istream@DU?$char_traits@D@std@@@std@@QAEAAV12@PAD_J@Z 004358b8     implant.obj
 0002:0000d8dc       __catchsym$??0?$vector@DV?$allocator@D@std@@@std@@QAE@I@Z$2 004358dc     implant.obj
 0002:0000d8ec       __unwindtable$??0?$vector@DV?$allocator@D@std@@@std@@QAE@I@Z 004358ec     implant.obj
 0002:0000d8fc       __tryblocktable$??0?$vector@DV?$allocator@D@std@@@std@@QAE@I@Z 004358fc     implant.obj
 0002:0000d910       __ehfuncinfo$??0?$vector@DV?$allocator@D@std@@@std@@QAE@I@Z 00435910     implant.obj
 0002:0000d934       __catchsym$?_Init@?$numpunct@D@std@@IAEXABV_Locinfo@2@_N@Z$2 00435934     implant.obj
 0002:0000d944       __unwindtable$?_Init@?$numpunct@D@std@@IAEXABV_Locinfo@2@_N@Z 00435944     implant.obj
 0002:0000d954       __tryblocktable$?_Init@?$numpunct@D@std@@IAEXABV_Locinfo@2@_N@Z 00435954     implant.obj
 0002:0000d968       __ehfuncinfo$?_Init@?$numpunct@D@std@@IAEXABV_Locinfo@2@_N@Z 00435968     implant.obj
 0002:0000db60       __ehfuncinfo$??1_Fac_node@std@@QAE@XZ 00435b60     libcpmt:locale0.obj
 0002:0000db60       __ehfuncinfo$??1_Locimp@locale@std@@MAE@XZ 00435b60     libcpmt:locale0.obj
 0002:0000db60       __ehfuncinfo$??1_Init_atexit@@QAE@XZ 00435b60     libcpmt:iosptrs.obj
 0002:0000db84       __unwindtable$?_Locimp_dtor@_Locimp@locale@std@@CAXPAV123@@Z 00435b84     libcpmt:locale0.obj
 0002:0000db8c       __ehfuncinfo$?_Locimp_dtor@_Locimp@locale@std@@CAXPAV123@@Z 00435b8c     libcpmt:locale0.obj
 0002:0000dbb0       __unwindtable$?_Init@locale@std@@CAPAV_Locimp@12@_N@Z 00435bb0     libcpmt:locale0.obj
 0002:0000dbb8       __ehfuncinfo$?_Init@locale@std@@CAPAV_Locimp@12@_N@Z 00435bb8     libcpmt:locale0.obj
 0002:0000dbdc       __unwindtable$??0?$basic_ostream@DU?$char_traits@D@std@@@std@@QAE@PAV?$basic_streambuf@DU?$char_traits@D@std@@@1@_N@Z 00435bdc     libcpmt:cout.obj
 0002:0000dbe4       __ehfuncinfo$??0?$basic_ostream@DU?$char_traits@D@std@@@std@@QAE@PAV?$basic_streambuf@DU?$char_traits@D@std@@@1@_N@Z 00435be4     libcpmt:cout.obj
 0002:0000dc08       __unwindtable$??_D?$basic_ostream@DU?$char_traits@D@std@@@std@@QAEXXZ 00435c08     libcpmt:cout.obj
 0002:0000dc10       __ehfuncinfo$??_D?$basic_ostream@DU?$char_traits@D@std@@@std@@QAEXXZ 00435c10     libcpmt:cout.obj
 0002:0000dc38       __sehtable$___scrt_is_nonwritable_in_current_image 00435c38     LIBCMT:utility.obj
 0002:0000dc58       __sehtable$?__scrt_common_main_seh@@YAHXZ 00435c58     LIBCMT:exe_wwinmain.obj
 0002:0000dcb0       __sehtable$___FrameUnwindToState 00435cb0     libvcruntime:frame.obj
 0002:0000dcd8       __sehtable$?CallCatchBlock@@YAPAXPAUEHExceptionRecord@@PAUEHRegistrationNode@@PAU_CONTEXT@@PBU_s_FuncInfo@@PAXHK@Z 00435cd8     libvcruntime:frame.obj
 0002:0000dd00       __sehtable$___BuildCatchObject 00435d00     libvcruntime:frame.obj
 0002:0000dd20       __sehtable$___DestructExceptionObject 00435d20     libvcruntime:frame.obj
 0002:0000dd3c       __catchsym$?CallUnexpected@@YAXPBU_s_ESTypeList@@@Z$2 00435d3c     libvcruntime:frame.obj
 0002:0000dd4c       __unwindtable$?CallUnexpected@@YAXPBU_s_ESTypeList@@@Z 00435d4c     libvcruntime:frame.obj
 0002:0000dd5c       __tryblocktable$?CallUnexpected@@YAXPBU_s_ESTypeList@@@Z 00435d5c     libvcruntime:frame.obj
 0002:0000dd70       __ehfuncinfo$?CallUnexpected@@YAXPBU_s_ESTypeList@@@Z 00435d70     libvcruntime:frame.obj
 0002:0000dd98       __sehtable$___BuildCatchObjectHelper 00435d98     libvcruntime:frame.obj
 0002:0000ddf0       __sehtable$?common_exit@@YAXHW4_crt_exit_cleanup_mode@@W4_crt_exit_return_mode@@@Z 00435df0     libucrt:exit.obj
 0002:0000de18       __sehtable$_fclose         00435e18     libucrt:fclose.obj
 0002:0000de38       __sehtable$_fflush         00435e38     libucrt:fflush.obj
 0002:0000de58       __sehtable$_common_flush_all 00435e58     libucrt:fflush.obj
 0002:0000de80       __sehtable$_fgetc          00435e80     libucrt:fgetc.obj
 0002:0000dea0       __sehtable$??$common_fsopen@D@@YAPAU_iobuf@@QBD0H@Z 00435ea0     libucrt:fopen.obj
 0002:0000dec0       __sehtable$_fputc          00435ec0     libucrt:fputc.obj
 0002:0000dee0       __sehtable$_fread_s        00435ee0     libucrt:fread.obj
 0002:0000df00       __sehtable$?common_fseek@@YAHV__crt_stdio_stream@@_JH@Z 00435f00     libucrt:fseek.obj
 0002:0000df20       __sehtable$??$common_ftell@J@@YAJV__crt_stdio_stream@@@Z 00435f20     libucrt:ftell.obj
 0002:0000df40       __sehtable$??$common_ftell@_J@@YA_JV__crt_stdio_stream@@@Z 00435f40     libucrt:ftell.obj
 0002:0000df60       __sehtable$??$?RV<lambda_11b4f7b0d3157825a5656a18eba1ae27>@@AAV<lambda_b51c0495177f500e782686251704ae76>@@V<lambda_cf89b47920b5017557bfe891e78aca36>@@@?$__crt_seh_guarded_call@I@@QAEI$$QAV<lambda_11b4f7b0d3157825a5656a18eba1ae27>@@AAV<lambda_b51c0495177f500e782686251704ae76>@@$$QAV<lambda_cf89b47920b5017557bfe891e78aca36>@@@Z 00435f60     libucrt:fwrite.obj
 0002:0000df80       __sehtable$_rewind         00435f80     libucrt:rewind.obj
 0002:0000dfa0       __sehtable$??$?RV<lambda_d92cfe8357b99225085016881b624cb0>@@AAV<lambda_b721fa326cdb32351d23dfa67958c160>@@V<lambda_42d75b0848218ec137fa420c8ba9fdf9>@@@?$__crt_seh_guarded_call@H@@QAEH$$QAV<lambda_d92cfe8357b99225085016881b624cb0>@@AAV<lambda_b721fa326cdb32351d23dfa67958c160>@@$$QAV<lambda_42d75b0848218ec137fa420c8ba9fdf9>@@@Z 00435fa0     libucrt:setvbuf.obj
 0002:0000dfc0       __sehtable$_ungetc         00435fc0     libucrt:ungetc.obj
 0002:0000dfe0       __sehtable$_setlocale      00435fe0     libucrt:setlocale.obj
 0002:0000e000       __sehtable$__query_new_handler 00436000     libucrt:new_handler.obj
 0002:0000e020       __sehtable$??$?RV<lambda_800076c951b434888f4765a74a194fcc>@@AAV<lambda_4e60a939b0d047cfe11ddc22648dfba9>@@V<lambda_6dbb1268764f43b569ce7b67e331d33a>@@@?$__crt_seh_guarded_call@H@@QAEH$$QAV<lambda_800076c951b434888f4765a74a194fcc>@@AAV<lambda_4e60a939b0d047cfe11ddc22648dfba9>@@$$QAV<lambda_6dbb1268764f43b569ce7b67e331d33a>@@@Z 00436020     libucrt:onexit.obj
 0002:0000e040       __sehtable$??$?RV<lambda_995298e7d72eb4c2aab26c0585b3abe5>@@AAV<lambda_275893d493268fdec8709772e3fcec0e>@@V<lambda_293819299cbf9a7022e18b56a874bb5c>@@@?$__crt_seh_guarded_call@H@@QAEH$$QAV<lambda_995298e7d72eb4c2aab26c0585b3abe5>@@AAV<lambda_275893d493268fdec8709772e3fcec0e>@@$$QAV<lambda_293819299cbf9a7022e18b56a874bb5c>@@@Z 00436040     libucrt:onexit.obj
 0002:0000e060       __sehtable$___acrt_uninitialize_locale 00436060     libucrt:wsetlocale.obj
 0002:0000e080       __sehtable$??$?RV<lambda_70818de7b02deff9841e8b0962a60ed9>@@AAV<lambda_2af78c5f5901b1372d98f9ab3177dfa6>@@AAV<lambda_f51fe5fd7c79a33db34fc9310f277369>@@@?$__crt_seh_guarded_call@X@@QAEX$$QAV<lambda_70818de7b02deff9841e8b0962a60ed9>@@AAV<lambda_2af78c5f5901b1372d98f9ab3177dfa6>@@AAV<lambda_f51fe5fd7c79a33db34fc9310f277369>@@@Z 00436080     libucrt:wsetlocale.obj
 0002:0000e0a0       __sehtable$??$?RV<lambda_c76fdea48760d5f9368b465f31df4405>@@AAV<lambda_e378711a6f6581bf7f0efd7cdf97f5d9>@@V<lambda_e927a58b2a85c081d733e8c6192ae2d2>@@@?$__crt_seh_guarded_call@X@@QAEX$$QAV<lambda_c76fdea48760d5f9368b465f31df4405>@@AAV<lambda_e378711a6f6581bf7f0efd7cdf97f5d9>@@$$QAV<lambda_e927a58b2a85c081d733e8c6192ae2d2>@@@Z 004360a0     libucrt:wsetlocale.obj
 0002:0000e0c0       __sehtable$_terminate      004360c0     libucrt:terminate.obj
 0002:0000e0e0       __sehtable$??$?RV<lambda_9df27f884b057bc3edfc946cb5b7cf47>@@AAV<lambda_e69574bed617af4e071282c136b37893>@@V<lambda_cc0d902bcbbeb830f749456577db4721>@@@?$__crt_seh_guarded_call@X@@QAEX$$QAV<lambda_9df27f884b057bc3edfc946cb5b7cf47>@@AAV<lambda_e69574bed617af4e071282c136b37893>@@$$QAV<lambda_cc0d902bcbbeb830f749456577db4721>@@@Z 004360e0     libucrt:per_thread_data.obj
 0002:0000e100       __sehtable$??$?RV<lambda_3518db117f0e7cdb002338c5d3c47b6c>@@AAV<lambda_b2ea41f6bbb362cd97d94c6828d90b61>@@V<lambda_abdedf541bb04549bc734292b4a045d4>@@@?$__crt_seh_guarded_call@X@@QAEX$$QAV<lambda_3518db117f0e7cdb002338c5d3c47b6c>@@AAV<lambda_b2ea41f6bbb362cd97d94c6828d90b61>@@$$QAV<lambda_abdedf541bb04549bc734292b4a045d4>@@@Z 00436100     libucrt:per_thread_data.obj
 0002:0000e120       __sehtable$??$?RV<lambda_51b6e8b1eb166f2a3faf91f424b38130>@@AAV<lambda_6250bd4b2a391816dd638c3bf72b0bcb>@@V<lambda_0b5a4a3e68152e1d9b943535f5f47bed>@@@?$__crt_seh_guarded_call@X@@QAEX$$QAV<lambda_51b6e8b1eb166f2a3faf91f424b38130>@@AAV<lambda_6250bd4b2a391816dd638c3bf72b0bcb>@@$$QAV<lambda_0b5a4a3e68152e1d9b943535f5f47bed>@@@Z 00436120     libucrt:per_thread_data.obj
 0002:0000e140       __sehtable$??$?RV<lambda_5b71d36f03204c0beab531769a5b5694>@@AAV<lambda_be2b3da3f62db62e9dad5dc70221a656>@@V<lambda_8f9ce462984622f9bf76b59e2aaaf805>@@@?$__crt_seh_guarded_call@X@@QAEX$$QAV<lambda_5b71d36f03204c0beab531769a5b5694>@@AAV<lambda_be2b3da3f62db62e9dad5dc70221a656>@@$$QAV<lambda_8f9ce462984622f9bf76b59e2aaaf805>@@@Z 00436140     libucrt:per_thread_data.obj
 0002:0000e160       __sehtable$??$?RV<lambda_9227be29367c048ad7fd93a717dcb1a1>@@AAV<lambda_a463b7b0560cfcaf9b17f27c6ef46564>@@V<lambda_ccea11b5727ccf69be64f5f5d9a08d9f>@@@?$__crt_seh_guarded_call@H@@QAEH$$QAV<lambda_9227be29367c048ad7fd93a717dcb1a1>@@AAV<lambda_a463b7b0560cfcaf9b17f27c6ef46564>@@$$QAV<lambda_ccea11b5727ccf69be64f5f5d9a08d9f>@@@Z 00436160     libucrt:winapi_thunks.obj
 0002:0000e180       __sehtable$___set_fpsr_sse2 00436180     libucrt:fpctrl.obj
 0002:0000e1a0       __sehtable$__fcloseall     004361a0     libucrt:closeall.obj
 0002:0000e1c0       __sehtable$___acrt_initialize_lowio 004361c0     libucrt:ioinit.obj
 0002:0000e1e0       __sehtable$??$?RV<lambda_123407a5e2ac06da108355a851863b7a>@@AAV<lambda_2fe9b910cf3cbf4a0ab98a02ba45b3ec>@@V<lambda_ae55bdf541ad94d75914d381c370e64d>@@@?$__crt_seh_guarded_call@H@@QAEH$$QAV<lambda_123407a5e2ac06da108355a851863b7a>@@AAV<lambda_2fe9b910cf3cbf4a0ab98a02ba45b3ec>@@$$QAV<lambda_ae55bdf541ad94d75914d381c370e64d>@@@Z 004361e0     libucrt:close.obj
 0002:0000e200       __sehtable$?__acrt_stdio_allocate_stream@@YA?AV__crt_stdio_stream@@XZ 00436200     libucrt:stream.obj
 0002:0000e220       __sehtable$??$?RV<lambda_61cee617f5178ae960314fd4d05640a0>@@AAV<lambda_6978c1fb23f02e42e1d9e99668cc68aa>@@V<lambda_9cd88cf8ad10232537feb2133f08c833>@@@?$__crt_seh_guarded_call@H@@QAEH$$QAV<lambda_61cee617f5178ae960314fd4d05640a0>@@AAV<lambda_6978c1fb23f02e42e1d9e99668cc68aa>@@$$QAV<lambda_9cd88cf8ad10232537feb2133f08c833>@@@Z 00436220     libucrt:commit.obj
 0002:0000e240       __sehtable$__write         00436240     libucrt:write.obj
 0002:0000e260       __sehtable$__read          00436260     libucrt:read.obj
 0002:0000e280       __sehtable$??$common_lseek@J@@YAJHJH@Z 00436280     libucrt:lseek.obj
 0002:0000e2a0       __sehtable$??$common_lseek@_J@@YA_JH_JH@Z 004362a0     libucrt:lseek.obj
 0002:0000e2c0       __sehtable$_raise          004362c0     libucrt:signal.obj
 0002:0000e2e0       __sehtable$??$?RV<lambda_a048d3beccc847880fc8490e18b82769>@@AAV<lambda_ec61778202f4f5fc7e7711acc23c3bca>@@V<lambda_f7496a158712204296dd6628a163878e>@@@?$__crt_seh_guarded_call@P6AXH@Z@@QAEP6AXH@Z$$QAV<lambda_a048d3beccc847880fc8490e18b82769>@@AAV<lambda_ec61778202f4f5fc7e7711acc23c3bca>@@$$QAV<lambda_f7496a158712204296dd6628a163878e>@@@Z 004362e0     libucrt:signal.obj
 0002:0000e300       __sehtable$___acrt_update_thread_multibyte_data 00436300     libucrt:mbctype.obj
 0002:0000e320       __sehtable$??$?RV<lambda_978dc153c237d78434369da87b74ff60>@@AAV<lambda_ad1ced32f4ac17aa236e5ef05d6b3b7c>@@V<lambda_4a8533e2866a575feecb8298ce776b0d>@@@?$__crt_seh_guarded_call@X@@QAEX$$QAV<lambda_978dc153c237d78434369da87b74ff60>@@AAV<lambda_ad1ced32f4ac17aa236e5ef05d6b3b7c>@@$$QAV<lambda_4a8533e2866a575feecb8298ce776b0d>@@@Z 00436320     libucrt:mbctype.obj
 0002:0000e340       __sehtable$__alloc_osfhnd  00436340     libucrt:osfinfo.obj
 0002:0000e360       __sehtable$___acrt_lowio_ensure_fh_exists 00436360     libucrt:osfinfo.obj
 0002:0000e380       __sehtable$___acrt_update_thread_locale_data 00436380     libucrt:locale_refcounting.obj
 0002:0000e3a0       __sehtable$??$common_sopen_dispatch@D@@YAHQBDHHHQAHH@Z 004363a0     libucrt:open.obj
 0002:0000e3c0       __sehtable$__IsNonwritableInCurrentImage 004363c0     LIBCMT:pesect.obj
 0002:0000e63a       .idata$6                   0043663a     wininet:WININET.dll
 0002:0000e658       .idata$6                   00436658     iphlpapi:IPHLPAPI.DLL
 0002:0000e976       .idata$6                   00436976     kernel32:KERNEL32.dll
 0003:00000000       _srvrIP                    00437000     implant.obj
 0003:00000100       _ownerID                   00437100     implant.obj
 0003:00000200       _built                     00437200     implant.obj
 0003:00000204       ?boundary@?1??sendFile@@YAXPAD0@Z@4PADA 00437204     implant.obj
 0003:00000210       ?url@?1??sendHeartbeat@@YAXXZ@4PADA 00437210     implant.obj
 0003:0000021c       ?boundary@?1??registerImplant@@YAXXZ@4PADA 0043721c     implant.obj
 0003:00000228       ?init@std@@3JA             00437228     libcpmt:xlock.obj
 0003:00000230       ?atcount_cdecl@@3IA        00437230     libcpmt:iosptrs.obj
 0003:000002c0       ?__vcrt_flsindex@@3KA      004372c0     libvcruntime:per_thread_data.obj
 0003:000002e0       _errno_no_memory           004372e0     libucrt:errno.obj
 0003:000002e4       _doserrno_no_memory        004372e4     libucrt:errno.obj
 0003:00000400       __ctype_loc_style          00437400     libucrt:wsetlocale.obj
 0003:00000404       ___acrt_flsindex           00437404     libucrt:per_thread_data.obj
 0003:000004d4       ?__DAZ_ENABLED@?1??__set_fpsr_sse2@@9@9 004374d4     libucrt:fpctrl.obj
 0003:00000610       _tzstd_program             00437610     libucrt:timeset.obj
 0003:00000650       _tzdst_program             00437650     libucrt:timeset.obj
 0003:00000690       _tzname_states             00437690     libucrt:timeset.obj
 0003:00000698       ___rgctypeflag             00437698     libucrt:mbctype.obj
 0003:000006a0       ___rgcode_page_info        004376a0     libucrt:mbctype.obj
 0003:00001110       _botID                     00438110     implant.obj
 0003:00001148       ?initlocks@std@@3V_Init_locks@1@A 00438148     libcpmt:xlock.obj
 0003:00001150       ?mtx@std@@3PAU_RTL_CRITICAL_SECTION@@A 00438150     libcpmt:xlock.obj
 0003:00001218       _global_locale             00438218     libcpmt:locale0.obj
 0003:0000121c       ?_Fac_head@std@@3PAU_Fac_node@1@A 0043821c     libcpmt:locale0.obj
 0003:00001234       ?classic_locale@std@@3Vlocale@1@A 00438234     libcpmt:locale0.obj
 0003:0000123c       ?_Fac_tidy_reg@std@@3U_Fac_tidy_reg_t@1@B 0043823c     libcpmt:locale0.obj
 0003:0000123d       ?registered@?1??_Setgloballocale@locale@std@@CAXPAX@Z@4_NA 0043823d     libcpmt:locale0.obj
 0003:00001244       ?stdstr@std@@3PAPAVios_base@1@A 00438244     libcpmt:ios.obj
 0003:0000126c       ?stdopens@std@@3PADA       0043826c     libcpmt:ios.obj
 0003:00001278       ?initlocks@@3V_Init_locks@std@@A 00438278     libcpmt:cout.obj
 0003:00001279       ?init_cout@std@@3U_Init_cout@1@A 00438279     libcpmt:cout.obj
 0003:000012d0       ?fout@std@@3V?$basic_filebuf@DU?$char_traits@D@std@@@1@A 004382d0     libcpmt:cout.obj
 0003:00001328       ?initlocks@@3V_Init_locks@std@@A 00438328     libcpmt:cerr.obj
 0003:00001329       ?init_cerr@std@@3U_Init_cerr@1@A 00438329     libcpmt:cerr.obj
 0003:00001380       ?ferr@std@@3V?$basic_filebuf@DU?$char_traits@D@std@@@1@A 00438380     libcpmt:cerr.obj
 0003:000013f8       ?atfuns_cdecl@@3PAP6AXXZA  004383f8     libcpmt:iosptrs.obj
 0003:00001420       ?initlocks@std@@3V_Init_locks@1@A 00438420     libcpmt:iosptrs.obj
 0003:00001421       ?init_atexit@@3U_Init_atexit@@A 00438421     libcpmt:iosptrs.obj
 0003:00001548       ?module_local_atexit_table@@3U_onexit_table_t@@A 00438548     LIBCMT:utility.obj
 0003:00001554       ?module_local_at_quick_exit_table@@3U_onexit_table_t@@A 00438554     LIBCMT:utility.obj
 0003:00001560       ?is_initialized_as_dll@@3_NA 00438560     LIBCMT:utility.obj
 0003:00001568       _GS_ExceptionRecord        00438568     LIBCMT:gs_report.obj
 0003:000015b8       _GS_ContextRecord          004385b8     LIBCMT:gs_report.obj
 0003:00001884       ?_Tss_mutex@@3U_RTL_CRITICAL_SECTION@@A 00438884     LIBCMT:thread_safe_statics.obj
 0003:0000189c       ?_Tss_cv@@3U_RTL_CONDITION_VARIABLE@@A 0043889c     LIBCMT:thread_safe_statics.obj
 0003:000018a0       ?_Tss_event@@3PAXA         004388a0     LIBCMT:thread_safe_statics.obj
 0003:000018a4       ?encoded_sleep_condition_variable_cs@@3P6GHPAU_RTL_CONDITION_VARIABLE@@PAU_RTL_CRITICAL_SECTION@@K@ZA 004388a4     LIBCMT:thread_safe_statics.obj
 0003:000018a8       ?encoded_wake_all_condition_variable@@3P6GXPAU_RTL_CONDITION_VARIABLE@@@ZA 004388a8     LIBCMT:thread_safe_statics.obj
 0003:000018d4       ?module_handles@@3PAPAUHINSTANCE__@@A 004388d4     libvcruntime:winapi_downlevel.obj
 0003:000018e4       ?encoded_function_pointers@@3PAPAXA 004388e4     libvcruntime:winapi_downlevel.obj
 0003:0000190c       ?__vcrt_startup_thread_ptd@@3U__vcrt_ptd@@A 0043890c     libvcruntime:per_thread_data.obj
 0003:00001934       ___vcrt_lock_table         00438934     libvcruntime:locks.obj
 0003:0000194c       ___vcrt_locks_initialized  0043894c     libvcruntime:locks.obj
 0003:00001978       ?heap@@3V_HeapManager@@A   00438978     libvcruntime:undname.obj
 0003:0000198c       ___acrt_invalid_parameter_handler 0043898c     libucrt:invalid_parameter.obj
 0003:00001990       _c_termination_complete    00438990     libucrt:exit.obj
 0003:00001994       _thread_local_exit_callback_func 00438994     libucrt:exit.obj
 0003:00001998       ?c_exit_complete@?5??common_exit@@YAXHW4_crt_exit_cleanup_mode@@W4_crt_exit_return_mode@@@Z@4_NA 00438998     libucrt:exit.obj
 0003:000019b0       ___acrt_lock_table         004389b0     libucrt:locks.obj
 0003:00001ae8       ___acrt_locks_initialized  00438ae8     libucrt:locks.obj
 0003:00001aec       ___acrt_new_handler        00438aec     libucrt:new_handler.obj
 0003:00001af0       ?program_name@?5???$common_configure_argv@_W@@YAHW4_crt_argv_mode@@@Z@4PA_WA 00438af0     libucrt:argv_parsing.obj
 0003:00001d24       ___acrt_app_type           00438d24     libucrt:report_runtime_error.obj
 0003:00001d28       _user_matherr              00438d28     libucrt:matherr.obj
 0003:00001d2c       ?empty_string@?1???$common_wincmdln@_W@@YAPA_WXZ@4PA_WA 00438d2c     libucrt:argv_winmain.obj
 0003:00001d34       ___acrt_global_new_mode    00438d34     libucrt:new_mode.obj
 0003:00001d40       _module_handles            00438d40     libucrt:winapi_thunks.obj
 0003:00001d90       _encoded_function_pointers 00438d90     libucrt:winapi_thunks.obj
 0003:00001e10       ?static_enum_proc@?1??enum_system_locales_ex_nolock@@YAHQ6GHPA_WKJ@Z@Z@4P6GH0KJ@ZA 00438e10     libucrt:winapi_thunks.obj
 0003:00001e14       ?state_cache@?1??__acrt_is_packaged_app@@9@4JA 00438e14     libucrt:winapi_thunks.obj
 0003:0000202c       _enable_percent_n          0043902c     libucrt:printf_count_output.obj
 0003:00002034       _ctrlc_action              00439034     libucrt:signal.obj
 0003:00002038       _ctrlbreak_action          00439038     libucrt:signal.obj
 0003:0000203c       _abort_action              0043903c     libucrt:signal.obj
 0003:00002040       _term_action               00439040     libucrt:signal.obj
 0003:00002054       __tzname                   00439054     libucrt:timeset.obj
 0003:00002058       _tz_api_used               00439058     libucrt:tzset.obj
 0003:00002060       _tz_info                   00439060     libucrt:tzset.obj
 0003:00002124       _fSystemSet                00439124     libucrt:mbctype.obj
 0003:00002128       ?initialized@?1??__acrt_initialize_multibyte@@9@4_NA 00439128     libucrt:mbctype.obj
 0003:00002148       __pmatherr_set             00439148     libucrt:libm_error.obj
 0004:00000000       __guard_fids____dcrt_uninitialize_environments_nolock 0043a000     libucrt:environment_initialization.obj
 0004:00000008       __guard_fids__             0043a008     libucrt:initialization.obj
 0004:00000068       __guard_fids__             0043a068     libucrt:wsetlocale.obj
 0004:00000080       __guard_fids____acrt_initialize_ptd 0043a080     libucrt:per_thread_data.obj
 0004:00000084       __guard_fids_??$?RV<lambda_9227be29367c048ad7fd93a717dcb1a1>@@AAV<lambda_a463b7b0560cfcaf9b17f27c6ef46564>@@V<lambda_ccea11b5727ccf69be64f5f5d9a08d9f>@@@?$__crt_seh_guarded_call@H@@QAEH$$QAV<lambda_9227be29367c048ad7fd93a717dcb1a1>@@AAV<lambda_a463b7b0560cfcaf9b17f27c6ef46564>@@$$QAV<lambda_ccea11b5727ccf69be64f5f5d9a08d9f>@@@Z 0043a084     libucrt:winapi_thunks.obj
 0004:00000088       __guard_fids__             0043a088     libucrt:stdio_initializer.obj
 0004:0000008c       __guard_fids__             0043a08c     libucrt:stdio_initializer.obj
 0004:00000090       __guard_fids_??$expand_argument_wildcards@_W@@YAHQA_W0AAV?$argument_list@_W@?A0xb0e4b824@@@Z 0043a090     libucrt:argv_wildcards.obj
 0004:00000094       __guard_fids__             0043a094     libucrt:locale_initializer.obj
 0004:00000098       __guard_fids__GetLocaleNameFromLangCountry 0043a098     libucrt:get_qualified_locale.obj
 0004:0000009c       __guard_fids__GetLocaleNameFromLanguage 0043a09c     libucrt:get_qualified_locale.obj
 0004:000000a0       __guard_fids__GetLcidFromLangCountry 0043a0a0     libucrt:getqloc_downlevel.obj
 0004:000000a4       __guard_fids__GetLcidFromLanguage 0043a0a4     libucrt:getqloc_downlevel.obj
 0004:000000a8       __guard_fids__GetLcidFromCountry 0043a0a8     libucrt:getqloc_downlevel.obj
 0004:000000ac       __guard_fids__             0043a0ac     libucrt:sse2_initializer.obj
 0004:000000b0       __guard_fids____libm_error_support 0043a0b0     libucrt:libm_error.obj
 0004:000000b4       __guard_fids__             0043a0b4     libucrt:timeset_initializer.obj
 0004:000000b8       __guard_fids__             0043a0b8     libucrt:multibyte_initializer.obj
 0004:000000bc       __guard_fids__             0043a0bc     libucrt:console_output_initializer.obj
 0004:000000c0       __guard_fids_??__Einitlocks@std@@YAXXZ 0043a0c0     libcpmt:xlock.obj
 0004:000000c4       __guard_fids__             0043a0c4     libcpmt:xlock.obj
 0004:000000c8       __guard_fids__             0043a0c8     libcpmt:xthrow.obj
 0004:000000d0       __guard_fids__             0043a0d0     libcpmt:xthrow.obj
 0004:000000d8       __guard_fids__             0043a0d8     libcpmt:xthrow.obj
 0004:000000e0       __guard_fids__             0043a0e0     libcpmt:xthrow.obj
 0004:000000e8       __guard_fids__             0043a0e8     libcpmt:xthrow.obj
 0004:000000ec       __guard_fids__             0043a0ec     libcpmt:xthrow.obj
 0004:000000f0       __guard_fids__             0043a0f0     libcpmt:xthrow.obj
 0004:000000f4       __guard_fids__             0043a0f4     libcpmt:xthrow.obj
 0004:000000f8       __guard_fids__             0043a0f8     libcpmt:xthrow.obj
 0004:000000fc       __guard_fids__             0043a0fc     libcpmt:xthrow.obj
 0004:00000100       __guard_fids__             0043a100     libcpmt:xthrow.obj
 0004:00000104       __guard_fids_??__E_Fac_tidy_reg@std@@YAXXZ 0043a104     libcpmt:locale0.obj
 0004:00000108       __guard_fids_?_Setgloballocale@locale@std@@CAXPAX@Z 0043a108     libcpmt:locale0.obj
 0004:0000010c       __guard_fids_??__Eclassic_locale@std@@YAXXZ 0043a10c     libcpmt:locale0.obj
 0004:00000110       __guard_fids__             0043a110     libcpmt:locale0.obj
 0004:0000011c       __guard_fids__             0043a11c     libcpmt:locale0.obj
 0004:00000120       __guard_fids__             0043a120     libcpmt:locale0.obj
 0004:00000124       __guard_fids_??__Einitlocks@@YAXXZ 0043a124     libcpmt:cout.obj
 0004:00000128       __guard_fids_??__Efout@std@@YAXXZ 0043a128     libcpmt:cout.obj
 0004:0000012c       __guard_fids_??__Ecout@std@@YAXXZ 0043a12c     libcpmt:cout.obj
 0004:00000130       __guard_fids__             0043a130     libcpmt:cout.obj
 0004:00000134       __guard_fids__             0043a134     libcpmt:cout.obj
 0004:00000138       __guard_fids__             0043a138     libcpmt:cout.obj
 0004:0000013c       __guard_fids__             0043a13c     libcpmt:cout.obj
 0004:00000140       __guard_fids__             0043a140     libcpmt:cout.obj
 0004:00000144       __guard_fids_??__Einitlocks@@YAXXZ 0043a144     libcpmt:cerr.obj
 0004:00000148       __guard_fids_??__Eferr@std@@YAXXZ 0043a148     libcpmt:cerr.obj
 0004:0000014c       __guard_fids_??__Ecerr@std@@YAXXZ 0043a14c     libcpmt:cerr.obj
 0004:00000150       __guard_fids__             0043a150     libcpmt:cerr.obj
 0004:00000154       __guard_fids__             0043a154     libcpmt:cerr.obj
 0004:00000158       __guard_fids__             0043a158     libcpmt:cerr.obj
 0004:0000015c       __guard_fids__             0043a15c     libcpmt:cerr.obj
 0004:00000160       __guard_fids_??__Einitlocks@std@@YAXXZ 0043a160     libcpmt:iosptrs.obj
 0004:00000164       __guard_fids_??__Einit_atexit@@YAXXZ 0043a164     libcpmt:iosptrs.obj
 0004:00000168       __guard_fids__             0043a168     libcpmt:iosptrs.obj
 0004:0000016c       __guard_fids__             0043a16c     libcpmt:iosptrs.obj
 0004:00000170       __guard_fids__             0043a170     libcpmt:winapisupp.obj
 0004:00000174       __guard_fids__             0043a174     LIBCMT:thread_safe_statics.obj
 0004:00000178       __guard_fids_?__scrt_initialize_thread_safe_statics@@YAHXZ 0043a178     LIBCMT:thread_safe_statics.obj
 0004:0000017c       __guard_fids__             0043a17c     LIBCMT:std_type_info_static.obj
 0004:00000180       __guard_fids__             0043a180     LIBCMT:exe_wwinmain.obj
 0004:00000184       __guard_fids__             0043a184     LIBCMT:exe_wwinmain.obj
 0004:00000188       __guard_fids__             0043a188     LIBCMT:exe_wwinmain.obj
 0004:0000018c       __guard_fids_?pre_c_initialization@@YAHXZ 0043a18c     LIBCMT:exe_wwinmain.obj
 0004:00000194       __guard_fids__             0043a194     LIBCMT:throw_bad_alloc.obj
 0004:0000019c       __guard_fids__             0043a19c     LIBCMT:throw_bad_alloc.obj
 0004:000001a0       __guard_fids__             0043a1a0     LIBCMT:throw_bad_alloc.obj
 0004:000001a4       __guard_fids____scrt_set_unhandled_exception_filter 0043a1a4     LIBCMT:utility_desktop.obj
 0004:000001a8       __guard_fids__             0043a1a8     LIBCMT:guard_support.obj
 0004:000001ac       __guard_fids__             0043a1ac     libvcruntime:frame.obj
 0004:000001b0       __guard_fids__             0043a1b0     libvcruntime:frame.obj
 0004:000001b8       __guard_fids__             0043a1b8     libvcruntime:frame.obj
 0004:000001bc       __guard_fids__             0043a1bc     libvcruntime:frame.obj
 0004:000001c0       __guard_fids____vcrt_initialize_ptd 0043a1c0     libvcruntime:per_thread_data.obj
